   1              	 .cpu cortex-m0
   2              	 .eabi_attribute 20,1
   3              	 .eabi_attribute 21,1
   4              	 .eabi_attribute 23,3
   5              	 .eabi_attribute 24,1
   6              	 .eabi_attribute 25,1
   7              	 .eabi_attribute 26,1
   8              	 .eabi_attribute 30,4
   9              	 .eabi_attribute 34,0
  10              	 .eabi_attribute 18,4
  11              	 .file "smack_sl.c"
  12              	 .text
  13              	.Ltext0:
  14              	 .cfi_sections .debug_frame
  15              	 .section .text.example_handler,"ax",%progbits
  16              	 .align 1
  17              	 .global example_handler
  18              	 .arch armv6s-m
  19              	 .syntax unified
  20              	 .code 16
  21              	 .thumb_func
  22              	 .fpu softvfp
  24              	example_handler:
  25              	.LFB43:
  26              	 .file 1 "C:/Users/alast/Desktop/University/Classes/4A/OpenSesame/smack_sl/src/smack_sl.c"
   1:C:/Users/alast/Desktop/University/Classes/4A/OpenSesame/smack_sl/src\smack_sl.c **** /* ============================================================================
   2:C:/Users/alast/Desktop/University/Classes/4A/OpenSesame/smack_sl/src\smack_sl.c **** ** Copyright (c) 2021 Infineon Technologies AG
   3:C:/Users/alast/Desktop/University/Classes/4A/OpenSesame/smack_sl/src\smack_sl.c **** **               All rights reserved.
   4:C:/Users/alast/Desktop/University/Classes/4A/OpenSesame/smack_sl/src\smack_sl.c **** **               www.infineon.com
   5:C:/Users/alast/Desktop/University/Classes/4A/OpenSesame/smack_sl/src\smack_sl.c **** ** ============================================================================
   6:C:/Users/alast/Desktop/University/Classes/4A/OpenSesame/smack_sl/src\smack_sl.c **** **
   7:C:/Users/alast/Desktop/University/Classes/4A/OpenSesame/smack_sl/src\smack_sl.c **** ** ============================================================================
   8:C:/Users/alast/Desktop/University/Classes/4A/OpenSesame/smack_sl/src\smack_sl.c **** ** Redistribution and use of this software only permitted to the extent
   9:C:/Users/alast/Desktop/University/Classes/4A/OpenSesame/smack_sl/src\smack_sl.c **** ** expressly agreed with Infineon Technologies AG.
  10:C:/Users/alast/Desktop/University/Classes/4A/OpenSesame/smack_sl/src\smack_sl.c **** ** ============================================================================
  11:C:/Users/alast/Desktop/University/Classes/4A/OpenSesame/smack_sl/src\smack_sl.c **** *
  12:C:/Users/alast/Desktop/University/Classes/4A/OpenSesame/smack_sl/src\smack_sl.c **** */
  13:C:/Users/alast/Desktop/University/Classes/4A/OpenSesame/smack_sl/src\smack_sl.c **** 
  14:C:/Users/alast/Desktop/University/Classes/4A/OpenSesame/smack_sl/src\smack_sl.c **** /** @file     smack_sl.c
  15:C:/Users/alast/Desktop/University/Classes/4A/OpenSesame/smack_sl/src\smack_sl.c ****  *  @brief    holds smack_sl() which serves as the entry point for the application code after all t
  16:C:/Users/alast/Desktop/University/Classes/4A/OpenSesame/smack_sl/src\smack_sl.c ****  */
  17:C:/Users/alast/Desktop/University/Classes/4A/OpenSesame/smack_sl/src\smack_sl.c **** 
  18:C:/Users/alast/Desktop/University/Classes/4A/OpenSesame/smack_sl/src\smack_sl.c **** // standard libs
  19:C:/Users/alast/Desktop/University/Classes/4A/OpenSesame/smack_sl/src\smack_sl.c **** // included by core_cm0.h: #include <stdint.h>
  20:C:/Users/alast/Desktop/University/Classes/4A/OpenSesame/smack_sl/src\smack_sl.c **** #include "core_cm0.h"
  21:C:/Users/alast/Desktop/University/Classes/4A/OpenSesame/smack_sl/src\smack_sl.c **** #include <stdbool.h>
  22:C:/Users/alast/Desktop/University/Classes/4A/OpenSesame/smack_sl/src\smack_sl.c **** 
  23:C:/Users/alast/Desktop/University/Classes/4A/OpenSesame/smack_sl/src\smack_sl.c **** // Smack ROM lib
  24:C:/Users/alast/Desktop/University/Classes/4A/OpenSesame/smack_sl/src\smack_sl.c **** #include "rom_lib.h"
  25:C:/Users/alast/Desktop/University/Classes/4A/OpenSesame/smack_sl/src\smack_sl.c **** 
  26:C:/Users/alast/Desktop/University/Classes/4A/OpenSesame/smack_sl/src\smack_sl.c **** // Smack NVM lib
  27:C:/Users/alast/Desktop/University/Classes/4A/OpenSesame/smack_sl/src\smack_sl.c **** #include "sys_tim_lib.h"
  28:C:/Users/alast/Desktop/University/Classes/4A/OpenSesame/smack_sl/src\smack_sl.c **** 
  29:C:/Users/alast/Desktop/University/Classes/4A/OpenSesame/smack_sl/src\smack_sl.c **** // smack_sl project
  30:C:/Users/alast/Desktop/University/Classes/4A/OpenSesame/smack_sl/src\smack_sl.c **** #include "smack_sl.h"
  31:C:/Users/alast/Desktop/University/Classes/4A/OpenSesame/smack_sl/src\smack_sl.c **** #include "smack_dataexchange.h"
  32:C:/Users/alast/Desktop/University/Classes/4A/OpenSesame/smack_sl/src\smack_sl.c **** 
  33:C:/Users/alast/Desktop/University/Classes/4A/OpenSesame/smack_sl/src\smack_sl.c **** 
  34:C:/Users/alast/Desktop/University/Classes/4A/OpenSesame/smack_sl/src\smack_sl.c **** #ifndef wait_about_1ms
  35:C:/Users/alast/Desktop/University/Classes/4A/OpenSesame/smack_sl/src\smack_sl.c **** #define WAIT_ABOUT_1MS   0x8000   //!< clock tick constant ~1ms @ 28MHz
  36:C:/Users/alast/Desktop/University/Classes/4A/OpenSesame/smack_sl/src\smack_sl.c **** #endif
  37:C:/Users/alast/Desktop/University/Classes/4A/OpenSesame/smack_sl/src\smack_sl.c **** 
  38:C:/Users/alast/Desktop/University/Classes/4A/OpenSesame/smack_sl/src\smack_sl.c **** 
  39:C:/Users/alast/Desktop/University/Classes/4A/OpenSesame/smack_sl/src\smack_sl.c **** /* NDEF tag defined by user.
  40:C:/Users/alast/Desktop/University/Classes/4A/OpenSesame/smack_sl/src\smack_sl.c ****  * To activate this tag, set the field "tag_type_2_ptr" in aparams.
  41:C:/Users/alast/Desktop/University/Classes/4A/OpenSesame/smack_sl/src\smack_sl.c ****  */
  42:C:/Users/alast/Desktop/University/Classes/4A/OpenSesame/smack_sl/src\smack_sl.c **** const uint8_t smack_sl_tag[] =                    /**< [0x3a0:0x3ff] 96 Bytes Tag2 area          */
  43:C:/Users/alast/Desktop/University/Classes/4A/OpenSesame/smack_sl/src\smack_sl.c **** {
  44:C:/Users/alast/Desktop/University/Classes/4A/OpenSesame/smack_sl/src\smack_sl.c ****     0x05, 0xc0, 0xbe, 0xef,      /**< BLOCK0 UID0,1,2,3,4 */
  45:C:/Users/alast/Desktop/University/Classes/4A/OpenSesame/smack_sl/src\smack_sl.c ****     0xde, 0xad, 0x00, 0x00,      /**< BLOCK1 UID5,6,7,0x00 */
  46:C:/Users/alast/Desktop/University/Classes/4A/OpenSesame/smack_sl/src\smack_sl.c ****     0xff, 0xff, 0xff, 0xff,      /**< BLOCK2 Internal Lock  Byte0 and Byte1 are relevant 0xff means
  47:C:/Users/alast/Desktop/University/Classes/4A/OpenSesame/smack_sl/src\smack_sl.c ****     0xE1,                        /**< Capability Container CC_0 Magic Number fixed to 0xE1 for type
  48:C:/Users/alast/Desktop/University/Classes/4A/OpenSesame/smack_sl/src\smack_sl.c ****     0x10,                        /**< Capability Container CC_1 Mapping version default 0x10 */
  49:C:/Users/alast/Desktop/University/Classes/4A/OpenSesame/smack_sl/src\smack_sl.c ****     0x0b,                        /**< Capability Container CC_2 size 22 Blocks --> 88 Bytes / 8 = 1
  50:C:/Users/alast/Desktop/University/Classes/4A/OpenSesame/smack_sl/src\smack_sl.c ****     0x0f,                        /**< Capability Container CC_3 Access Conditions , 0x0f  for read 
  51:C:/Users/alast/Desktop/University/Classes/4A/OpenSesame/smack_sl/src\smack_sl.c ****     0x03, 0x4f, 0xd1, 0x01,      /**< BLOCK4  NDEF, Length, MB + ME + Well known, ID length */
  52:C:/Users/alast/Desktop/University/Classes/4A/OpenSesame/smack_sl/src\smack_sl.c ****     0x4b, 0x54, 0x02,  'e',      /**< BLOCK5  Payload lenth, ID, language length, lang0 */
  53:C:/Users/alast/Desktop/University/Classes/4A/OpenSesame/smack_sl/src\smack_sl.c ****     'n',   'I',  'n',  'f',      /**< BLOCK6  lang1, payload .... */
  54:C:/Users/alast/Desktop/University/Classes/4A/OpenSesame/smack_sl/src\smack_sl.c ****     'i',   'n',  'e',  'o',      /**< BLOCK7  */
  55:C:/Users/alast/Desktop/University/Classes/4A/OpenSesame/smack_sl/src\smack_sl.c ****     'n',   ' ',  'T',  'e',      /**< BLOCK8  */
  56:C:/Users/alast/Desktop/University/Classes/4A/OpenSesame/smack_sl/src\smack_sl.c ****     'c',   'h',  'n',  'o',      /**< BLOCK9  */
  57:C:/Users/alast/Desktop/University/Classes/4A/OpenSesame/smack_sl/src\smack_sl.c ****     'l',   'o',  'g',  'i',      /**< BLOCK10 */
  58:C:/Users/alast/Desktop/University/Classes/4A/OpenSesame/smack_sl/src\smack_sl.c ****     'e',   's',  ' ',  'A',      /**< BLOCK11 */
  59:C:/Users/alast/Desktop/University/Classes/4A/OpenSesame/smack_sl/src\smack_sl.c ****     'G',   ' ',  ' ',  'N',      /**< BLOCK12 */
  60:C:/Users/alast/Desktop/University/Classes/4A/OpenSesame/smack_sl/src\smack_sl.c ****     'G',   'C',  '1',  '0',      /**< BLOCK13 */
  61:C:/Users/alast/Desktop/University/Classes/4A/OpenSesame/smack_sl/src\smack_sl.c ****     '8',   '0',  ' ',  ' ',      /**< BLOCK14 */
  62:C:/Users/alast/Desktop/University/Classes/4A/OpenSesame/smack_sl/src\smack_sl.c ****     'S',   'm',  'A',  'c',      /**< BLOCK15 */
  63:C:/Users/alast/Desktop/University/Classes/4A/OpenSesame/smack_sl/src\smack_sl.c ****     'K',   ' ',  ' ',  '0',      /**< BLOCK16 */
  64:C:/Users/alast/Desktop/University/Classes/4A/OpenSesame/smack_sl/src\smack_sl.c ****     '5',   'C',  '0',  'B',      /**< BLOCK17 */
  65:C:/Users/alast/Desktop/University/Classes/4A/OpenSesame/smack_sl/src\smack_sl.c ****     'E',   'E',  'F',  'D',      /**< BLOCK18 */
  66:C:/Users/alast/Desktop/University/Classes/4A/OpenSesame/smack_sl/src\smack_sl.c ****     'E',   'A',  'D',  '0',      /**< BLOCK19 */
  67:C:/Users/alast/Desktop/University/Classes/4A/OpenSesame/smack_sl/src\smack_sl.c ****     '0',   '0',  '0',  ' ',      /**< BLOCK20 */
  68:C:/Users/alast/Desktop/University/Classes/4A/OpenSesame/smack_sl/src\smack_sl.c ****     ' ',   'V',  '4',  '.',      /**< BLOCK21 */
  69:C:/Users/alast/Desktop/University/Classes/4A/OpenSesame/smack_sl/src\smack_sl.c ****     '0',   '.',  '1',  ' ',      /**< BLOCK22 */
  70:C:/Users/alast/Desktop/University/Classes/4A/OpenSesame/smack_sl/src\smack_sl.c ****     '(',   'N',  'V',  'M',      /**< BLOCK23 */
  71:C:/Users/alast/Desktop/University/Classes/4A/OpenSesame/smack_sl/src\smack_sl.c ****     ')',  0xfe, 0xff, 0xff,      /**< BLOCK24 */
  72:C:/Users/alast/Desktop/University/Classes/4A/OpenSesame/smack_sl/src\smack_sl.c ****     0xff, 0xff, 0xff, 0xff       /**< BLOCK25 not used */
  73:C:/Users/alast/Desktop/University/Classes/4A/OpenSesame/smack_sl/src\smack_sl.c **** };
  74:C:/Users/alast/Desktop/University/Classes/4A/OpenSesame/smack_sl/src\smack_sl.c **** 
  75:C:/Users/alast/Desktop/University/Classes/4A/OpenSesame/smack_sl/src\smack_sl.c **** 
  76:C:/Users/alast/Desktop/University/Classes/4A/OpenSesame/smack_sl/src\smack_sl.c **** 
  77:C:/Users/alast/Desktop/University/Classes/4A/OpenSesame/smack_sl/src\smack_sl.c **** 
  78:C:/Users/alast/Desktop/University/Classes/4A/OpenSesame/smack_sl/src\smack_sl.c **** // Globals:
  79:C:/Users/alast/Desktop/University/Classes/4A/OpenSesame/smack_sl/src\smack_sl.c **** 
  80:C:/Users/alast/Desktop/University/Classes/4A/OpenSesame/smack_sl/src\smack_sl.c **** // Offer a counter for external access
  81:C:/Users/alast/Desktop/University/Classes/4A/OpenSesame/smack_sl/src\smack_sl.c **** uint32_t sl_counter;
  82:C:/Users/alast/Desktop/University/Classes/4A/OpenSesame/smack_sl/src\smack_sl.c **** 
  83:C:/Users/alast/Desktop/University/Classes/4A/OpenSesame/smack_sl/src\smack_sl.c **** 
  84:C:/Users/alast/Desktop/University/Classes/4A/OpenSesame/smack_sl/src\smack_sl.c **** /** _nvm_start() is the main() routine of the application code:
  85:C:/Users/alast/Desktop/University/Classes/4A/OpenSesame/smack_sl/src\smack_sl.c ****  * - when building the image (rom or ram), it is called by Reset_Handler() (see startup_smack.c) af
  86:C:/Users/alast/Desktop/University/Classes/4A/OpenSesame/smack_sl/src\smack_sl.c ****  * - when building and running the unit tests, it is not called, as far as I know, it is not subjec
  87:C:/Users/alast/Desktop/University/Classes/4A/OpenSesame/smack_sl/src\smack_sl.c ****  * - when building and running integration and/or system tests, it is called by sc_main() upon simu
  88:C:/Users/alast/Desktop/University/Classes/4A/OpenSesame/smack_sl/src\smack_sl.c ****  * This is also the reason of why it is called _start() and not main(): The VP has a higher layer m
  89:C:/Users/alast/Desktop/University/Classes/4A/OpenSesame/smack_sl/src\smack_sl.c ****  * calls sc_main() and _start(). Having two main's will fail when linking the VP executable.
  90:C:/Users/alast/Desktop/University/Classes/4A/OpenSesame/smack_sl/src\smack_sl.c ****  *
  91:C:/Users/alast/Desktop/University/Classes/4A/OpenSesame/smack_sl/src\smack_sl.c ****  * @note _start() cannot be made static, it is referenced by startup_smack.c and also by the interf
  92:C:/Users/alast/Desktop/University/Classes/4A/OpenSesame/smack_sl/src\smack_sl.c ****  * to the Virtual Prototype. But linting does not know about such external references. The default
  93:C:/Users/alast/Desktop/University/Classes/4A/OpenSesame/smack_sl/src\smack_sl.c ****  * approach to solve is to add '//lint -e765'. Our linter is plain old, we don't get a new one than
  94:C:/Users/alast/Desktop/University/Classes/4A/OpenSesame/smack_sl/src\smack_sl.c ****  * the application owner from IT and it has a bug which renders -e765 useless. The only option we h
  95:C:/Users/alast/Desktop/University/Classes/4A/OpenSesame/smack_sl/src\smack_sl.c ****  * is to suppress the warning in au_misra2_fixes.lnt
  96:C:/Users/alast/Desktop/University/Classes/4A/OpenSesame/smack_sl/src\smack_sl.c ****  *
  97:C:/Users/alast/Desktop/University/Classes/4A/OpenSesame/smack_sl/src\smack_sl.c ****  * @return nothing
  98:C:/Users/alast/Desktop/University/Classes/4A/OpenSesame/smack_sl/src\smack_sl.c ****  */
  99:C:/Users/alast/Desktop/University/Classes/4A/OpenSesame/smack_sl/src\smack_sl.c **** 
 100:C:/Users/alast/Desktop/University/Classes/4A/OpenSesame/smack_sl/src\smack_sl.c **** void _nvm_start(void);
 101:C:/Users/alast/Desktop/University/Classes/4A/OpenSesame/smack_sl/src\smack_sl.c **** 
 102:C:/Users/alast/Desktop/University/Classes/4A/OpenSesame/smack_sl/src\smack_sl.c **** // Example for application specific interrupt service routine
 103:C:/Users/alast/Desktop/University/Classes/4A/OpenSesame/smack_sl/src\smack_sl.c **** //    Function pointer to this routine must be registered in aparam.c file
 104:C:/Users/alast/Desktop/University/Classes/4A/OpenSesame/smack_sl/src\smack_sl.c **** //    The routine will serve the sys_tick interrupts and will increment a variable
 105:C:/Users/alast/Desktop/University/Classes/4A/OpenSesame/smack_sl/src\smack_sl.c **** //    which can be easily monitored by the attached debugger
 106:C:/Users/alast/Desktop/University/Classes/4A/OpenSesame/smack_sl/src\smack_sl.c **** static uint32_t example_counter = 0;
 107:C:/Users/alast/Desktop/University/Classes/4A/OpenSesame/smack_sl/src\smack_sl.c **** void example_handler(void)
 108:C:/Users/alast/Desktop/University/Classes/4A/OpenSesame/smack_sl/src\smack_sl.c **** {
  27              	 .loc 1 108 1 view-0
  28              	 .cfi_startproc
  29              	 
  30              	 
  31              	 
 109:C:/Users/alast/Desktop/University/Classes/4A/OpenSesame/smack_sl/src\smack_sl.c **** 
 110:C:/Users/alast/Desktop/University/Classes/4A/OpenSesame/smack_sl/src\smack_sl.c ****     example_counter++;
  32              	 .loc 1 110 5 view .LVU1
  33              	 .loc 1 110 20 is_stmt 0 view .LVU2
  34 0000 024A     	 ldr r2,.L2
 111:C:/Users/alast/Desktop/University/Classes/4A/OpenSesame/smack_sl/src\smack_sl.c **** 
 112:C:/Users/alast/Desktop/University/Classes/4A/OpenSesame/smack_sl/src\smack_sl.c **** }
  35              	 .loc 1 112 1 view .LVU3
  36              	 
 110:C:/Users/alast/Desktop/University/Classes/4A/OpenSesame/smack_sl/src\smack_sl.c **** 
  37              	 .loc 1 110 20 view .LVU4
  38 0002 1368     	 ldr r3,[r2]
  39 0004 0133     	 adds r3,r3,#1
  40 0006 1360     	 str r3,[r2]
  41              	 .loc 1 112 1 view .LVU5
  42 0008 7047     	 bx lr
  43              	.L3:
  44 000a C046     	 .align 2
  45              	.L2:
  46 000c 00000000 	 .word .LANCHOR0
  47              	 .cfi_endproc
  48              	.LFE43:
  50              	 .section .text.hardfault_handler,"ax",%progbits
  51              	 .align 1
  52              	 .global hardfault_handler
  53              	 .syntax unified
  54              	 .code 16
  55              	 .thumb_func
  56              	 .fpu softvfp
  58              	hardfault_handler:
  59              	.LFB44:
 113:C:/Users/alast/Desktop/University/Classes/4A/OpenSesame/smack_sl/src\smack_sl.c **** 
 114:C:/Users/alast/Desktop/University/Classes/4A/OpenSesame/smack_sl/src\smack_sl.c **** // In case of a Hardfault, spin in a loop for a while before resetting so that a debugger may conne
 115:C:/Users/alast/Desktop/University/Classes/4A/OpenSesame/smack_sl/src\smack_sl.c **** void hardfault_handler(void)
 116:C:/Users/alast/Desktop/University/Classes/4A/OpenSesame/smack_sl/src\smack_sl.c **** {
  60              	 .loc 1 116 1 is_stmt 1 view-0
  61              	 .cfi_startproc
  62              	 
  63              	 
  64              	 
 117:C:/Users/alast/Desktop/University/Classes/4A/OpenSesame/smack_sl/src\smack_sl.c ****     uint32_t cnt = 30000000;
  65              	 .loc 1 117 5 view .LVU7
  66              	.LVL0:
 118:C:/Users/alast/Desktop/University/Classes/4A/OpenSesame/smack_sl/src\smack_sl.c **** 
 119:C:/Users/alast/Desktop/University/Classes/4A/OpenSesame/smack_sl/src\smack_sl.c ****     while (cnt--)
  67              	 .loc 1 119 5 view .LVU8
  68              	 .loc 1 119 11 is_stmt 0 view .LVU9
  69 0000 034B     	 ldr r3,.L7
  70              	.LVL1:
  71              	.L5:
  72              	 .loc 1 119 11 is_stmt 1 view .LVU10
  73              	 .loc 1 119 11 is_stmt 0 view .LVU11
  74 0002 013B     	 subs r3,r3,#1
  75              	.LVL2:
  76              	 .loc 1 119 11 view .LVU12
  77 0004 002B     	 cmp r3,#0
  78 0006 00D1     	 bne .L6
 120:C:/Users/alast/Desktop/University/Classes/4A/OpenSesame/smack_sl/src\smack_sl.c ****     {
 121:C:/Users/alast/Desktop/University/Classes/4A/OpenSesame/smack_sl/src\smack_sl.c ****         __NOP();
 122:C:/Users/alast/Desktop/University/Classes/4A/OpenSesame/smack_sl/src\smack_sl.c ****     }
 123:C:/Users/alast/Desktop/University/Classes/4A/OpenSesame/smack_sl/src\smack_sl.c **** 
 124:C:/Users/alast/Desktop/University/Classes/4A/OpenSesame/smack_sl/src\smack_sl.c **** }
  79              	 .loc 1 124 1 view .LVU13
  80              	 
  81 0008 7047     	 bx lr
  82              	.L6:
  83              	.LVL3:
 121:C:/Users/alast/Desktop/University/Classes/4A/OpenSesame/smack_sl/src\smack_sl.c ****     }
  84              	 .loc 1 121 9 is_stmt 1 view .LVU14
  85              	 .syntax divided
  86              	
  87 000a C046     	 nop
  88              	
  89              	 .thumb
  90              	 .syntax unified
  91 000c F9E7     	 b .L5
  92              	.L8:
  93 000e C046     	 .align 2
  94              	.L7:
  95 0010 81C3C901 	 .word 30000001
  96              	 .cfi_endproc
  97              	.LFE44:
  99              	 .section .text.open_sesame_state_machine,"ax",%progbits
 100              	 .align 1
 101              	 .global open_sesame_state_machine
 102              	 .syntax unified
 103              	 .code 16
 104              	 .thumb_func
 105              	 .fpu softvfp
 107              	open_sesame_state_machine:
 108              	.LFB45:
 125:C:/Users/alast/Desktop/University/Classes/4A/OpenSesame/smack_sl/src\smack_sl.c **** 
 126:C:/Users/alast/Desktop/University/Classes/4A/OpenSesame/smack_sl/src\smack_sl.c **** void open_sesame_state_machine(void)
 127:C:/Users/alast/Desktop/University/Classes/4A/OpenSesame/smack_sl/src\smack_sl.c **** {
 109              	 .loc 1 127 1 view-0
 110              	 .cfi_startproc
 111              	 
 112              	 
 113              	 
 114              	.L10:
 128:C:/Users/alast/Desktop/University/Classes/4A/OpenSesame/smack_sl/src\smack_sl.c ****     bool authenticated = false; 
 129:C:/Users/alast/Desktop/University/Classes/4A/OpenSesame/smack_sl/src\smack_sl.c ****     SM_State_enum_t current_state = SM_LOCKED;     // how do we know if it is locked or unlocked he
 130:C:/Users/alast/Desktop/University/Classes/4A/OpenSesame/smack_sl/src\smack_sl.c **** 
 131:C:/Users/alast/Desktop/University/Classes/4A/OpenSesame/smack_sl/src\smack_sl.c ****     while (true)
 115              	 .loc 1 131 5 view .LVU16
 132:C:/Users/alast/Desktop/University/Classes/4A/OpenSesame/smack_sl/src\smack_sl.c ****     {
 133:C:/Users/alast/Desktop/University/Classes/4A/OpenSesame/smack_sl/src\smack_sl.c ****         /* States 1 and 5 are safe states, i.e. we should be able to loop infinitely in them */
 134:C:/Users/alast/Desktop/University/Classes/4A/OpenSesame/smack_sl/src\smack_sl.c ****         switch (current_state)
 116              	 .loc 1 134 9 view .LVU17
 135:C:/Users/alast/Desktop/University/Classes/4A/OpenSesame/smack_sl/src\smack_sl.c ****         {
 136:C:/Users/alast/Desktop/University/Classes/4A/OpenSesame/smack_sl/src\smack_sl.c ****             /* STATE 1:  Locked, Idle */
 137:C:/Users/alast/Desktop/University/Classes/4A/OpenSesame/smack_sl/src\smack_sl.c ****             // TODO: clear variable that indicates that it is verified
 138:C:/Users/alast/Desktop/University/Classes/4A/OpenSesame/smack_sl/src\smack_sl.c ****             // TODO: wait for NFC; how to check if we have an NFC signal? Should be an interrupt, c
 139:C:/Users/alast/Desktop/University/Classes/4A/OpenSesame/smack_sl/src\smack_sl.c ****             // TODO: save NFC data, propagate to next state 
 140:C:/Users/alast/Desktop/University/Classes/4A/OpenSesame/smack_sl/src\smack_sl.c ****             case SM_LOCKED:
 141:C:/Users/alast/Desktop/University/Classes/4A/OpenSesame/smack_sl/src\smack_sl.c ****                 authenticated = false;
 117              	 .loc 1 141 17 view .LVU18
 118              	.LVL4:
 142:C:/Users/alast/Desktop/University/Classes/4A/OpenSesame/smack_sl/src\smack_sl.c ****                 break;
 119              	 .loc 1 142 17 view .LVU19
 120 0000 FEE7     	 b .L10
 121              	 .cfi_endproc
 122              	.LFE45:
 124              	 .section .text.led_blink,"ax",%progbits
 125              	 .align 1
 126              	 .global led_blink
 127              	 .syntax unified
 128              	 .code 16
 129              	 .thumb_func
 130              	 .fpu softvfp
 132              	led_blink:
 133              	.LFB46:
 143:C:/Users/alast/Desktop/University/Classes/4A/OpenSesame/smack_sl/src\smack_sl.c ****             
 144:C:/Users/alast/Desktop/University/Classes/4A/OpenSesame/smack_sl/src\smack_sl.c ****             /* STATE 2 : Locked, Verifying */
 145:C:/Users/alast/Desktop/University/Classes/4A/OpenSesame/smack_sl/src\smack_sl.c ****             // maybe investigate dandeliion protocol, but this is extra
 146:C:/Users/alast/Desktop/University/Classes/4A/OpenSesame/smack_sl/src\smack_sl.c ****             // TODO: decrypt data, compare passcodes (for the time being, just do a straight compar
 147:C:/Users/alast/Desktop/University/Classes/4A/OpenSesame/smack_sl/src\smack_sl.c ****             // TODO: if incorrect passcode, return to state 1, else continue
 148:C:/Users/alast/Desktop/University/Classes/4A/OpenSesame/smack_sl/src\smack_sl.c ****             // TODO: set variable that indicates that it is verified 
 149:C:/Users/alast/Desktop/University/Classes/4A/OpenSesame/smack_sl/src\smack_sl.c ****             // TODO: if charging interrupt not received, move to state 3, if received, move to stat
 150:C:/Users/alast/Desktop/University/Classes/4A/OpenSesame/smack_sl/src\smack_sl.c ****             case SM_AUTHENTICATE_UL:
 151:C:/Users/alast/Desktop/University/Classes/4A/OpenSesame/smack_sl/src\smack_sl.c ****                 break;
 152:C:/Users/alast/Desktop/University/Classes/4A/OpenSesame/smack_sl/src\smack_sl.c **** 
 153:C:/Users/alast/Desktop/University/Classes/4A/OpenSesame/smack_sl/src\smack_sl.c **** 
 154:C:/Users/alast/Desktop/University/Classes/4A/OpenSesame/smack_sl/src\smack_sl.c ****             /* STATE 3: Locked, Verified, Charging */
 155:C:/Users/alast/Desktop/University/Classes/4A/OpenSesame/smack_sl/src\smack_sl.c ****             // TODO: wait for charging of the capacitor to occur
 156:C:/Users/alast/Desktop/University/Classes/4A/OpenSesame/smack_sl/src\smack_sl.c ****             // TODO: will need to set up an interrupt (or something similar) to determine when the 
 157:C:/Users/alast/Desktop/University/Classes/4A/OpenSesame/smack_sl/src\smack_sl.c ****             // TODO: should set a timer as a timeout in case charging does not happen, if timeout g
 158:C:/Users/alast/Desktop/University/Classes/4A/OpenSesame/smack_sl/src\smack_sl.c ****             // TODO: move to state 4 when charging interrupt received
 159:C:/Users/alast/Desktop/University/Classes/4A/OpenSesame/smack_sl/src\smack_sl.c ****             case SM_CHARGING_UL:
 160:C:/Users/alast/Desktop/University/Classes/4A/OpenSesame/smack_sl/src\smack_sl.c ****                 break;
 161:C:/Users/alast/Desktop/University/Classes/4A/OpenSesame/smack_sl/src\smack_sl.c **** 
 162:C:/Users/alast/Desktop/University/Classes/4A/OpenSesame/smack_sl/src\smack_sl.c ****             /* STATE 4: Unlocking */
 163:C:/Users/alast/Desktop/University/Classes/4A/OpenSesame/smack_sl/src\smack_sl.c ****             // TODO: send signal to H-bridge to move motor
 164:C:/Users/alast/Desktop/University/Classes/4A/OpenSesame/smack_sl/src\smack_sl.c ****             // TODO: move to state 5
 165:C:/Users/alast/Desktop/University/Classes/4A/OpenSesame/smack_sl/src\smack_sl.c ****             case SM_UNLOCKING:
 166:C:/Users/alast/Desktop/University/Classes/4A/OpenSesame/smack_sl/src\smack_sl.c ****                 break;
 167:C:/Users/alast/Desktop/University/Classes/4A/OpenSesame/smack_sl/src\smack_sl.c **** 
 168:C:/Users/alast/Desktop/University/Classes/4A/OpenSesame/smack_sl/src\smack_sl.c ****             /* STATE 5: Unlocked, Idle */
 169:C:/Users/alast/Desktop/University/Classes/4A/OpenSesame/smack_sl/src\smack_sl.c ****             // TODO: clear variable that indicates that it is verified
 170:C:/Users/alast/Desktop/University/Classes/4A/OpenSesame/smack_sl/src\smack_sl.c ****             // TODO: similar to state 1
 171:C:/Users/alast/Desktop/University/Classes/4A/OpenSesame/smack_sl/src\smack_sl.c ****             // TODO: move to state 6
 172:C:/Users/alast/Desktop/University/Classes/4A/OpenSesame/smack_sl/src\smack_sl.c ****             case SM_UNLOCKED:
 173:C:/Users/alast/Desktop/University/Classes/4A/OpenSesame/smack_sl/src\smack_sl.c ****                 break;
 174:C:/Users/alast/Desktop/University/Classes/4A/OpenSesame/smack_sl/src\smack_sl.c **** 
 175:C:/Users/alast/Desktop/University/Classes/4A/OpenSesame/smack_sl/src\smack_sl.c ****             /* STATE 6: Unlocked, Verifying */
 176:C:/Users/alast/Desktop/University/Classes/4A/OpenSesame/smack_sl/src\smack_sl.c ****             // TODO: similar to state 2
 177:C:/Users/alast/Desktop/University/Classes/4A/OpenSesame/smack_sl/src\smack_sl.c ****             // TODO: if incorrect passcode, return to state 5, else continue
 178:C:/Users/alast/Desktop/University/Classes/4A/OpenSesame/smack_sl/src\smack_sl.c ****             // TODO: move to state 7 if no charging interrupt, if received move to state 8
 179:C:/Users/alast/Desktop/University/Classes/4A/OpenSesame/smack_sl/src\smack_sl.c ****             case SM_AUTHENTICATE_L:
 180:C:/Users/alast/Desktop/University/Classes/4A/OpenSesame/smack_sl/src\smack_sl.c ****                 break;
 181:C:/Users/alast/Desktop/University/Classes/4A/OpenSesame/smack_sl/src\smack_sl.c **** 
 182:C:/Users/alast/Desktop/University/Classes/4A/OpenSesame/smack_sl/src\smack_sl.c ****             /* STATE 7: Unlocked, Verifying, Charging */
 183:C:/Users/alast/Desktop/University/Classes/4A/OpenSesame/smack_sl/src\smack_sl.c ****             // TODO: similar to state 3
 184:C:/Users/alast/Desktop/University/Classes/4A/OpenSesame/smack_sl/src\smack_sl.c ****             // TODO: move to state 8 when charging interrupt received
 185:C:/Users/alast/Desktop/University/Classes/4A/OpenSesame/smack_sl/src\smack_sl.c ****             case SM_CHARGING_L:
 186:C:/Users/alast/Desktop/University/Classes/4A/OpenSesame/smack_sl/src\smack_sl.c ****                 break;
 187:C:/Users/alast/Desktop/University/Classes/4A/OpenSesame/smack_sl/src\smack_sl.c ****             
 188:C:/Users/alast/Desktop/University/Classes/4A/OpenSesame/smack_sl/src\smack_sl.c ****             /* STATE 8: Locking */
 189:C:/Users/alast/Desktop/University/Classes/4A/OpenSesame/smack_sl/src\smack_sl.c ****             // TODO: similar to state 4, but with opposite polarity so that the motor will move to 
 190:C:/Users/alast/Desktop/University/Classes/4A/OpenSesame/smack_sl/src\smack_sl.c ****             // TODO: move to state 1
 191:C:/Users/alast/Desktop/University/Classes/4A/OpenSesame/smack_sl/src\smack_sl.c ****             case SM_LOCKING:
 192:C:/Users/alast/Desktop/University/Classes/4A/OpenSesame/smack_sl/src\smack_sl.c ****                 break;
 193:C:/Users/alast/Desktop/University/Classes/4A/OpenSesame/smack_sl/src\smack_sl.c ****             
 194:C:/Users/alast/Desktop/University/Classes/4A/OpenSesame/smack_sl/src\smack_sl.c ****             default:
 195:C:/Users/alast/Desktop/University/Classes/4A/OpenSesame/smack_sl/src\smack_sl.c ****                 break;
 196:C:/Users/alast/Desktop/University/Classes/4A/OpenSesame/smack_sl/src\smack_sl.c ****         }
 197:C:/Users/alast/Desktop/University/Classes/4A/OpenSesame/smack_sl/src\smack_sl.c **** 
 198:C:/Users/alast/Desktop/University/Classes/4A/OpenSesame/smack_sl/src\smack_sl.c ****     }
 199:C:/Users/alast/Desktop/University/Classes/4A/OpenSesame/smack_sl/src\smack_sl.c **** }
 200:C:/Users/alast/Desktop/University/Classes/4A/OpenSesame/smack_sl/src\smack_sl.c **** 
 201:C:/Users/alast/Desktop/University/Classes/4A/OpenSesame/smack_sl/src\smack_sl.c **** void led_blink(void) {
 134              	 .loc 1 201 22 view-0
 135              	 .cfi_startproc
 136              	 
 137              	 
 202:C:/Users/alast/Desktop/University/Classes/4A/OpenSesame/smack_sl/src\smack_sl.c ****     single_gpio_iocfg(true, false, true, false, false, 0);
 138              	 .loc 1 202 5 view .LVU21
 201:C:/Users/alast/Desktop/University/Classes/4A/OpenSesame/smack_sl/src\smack_sl.c ****     single_gpio_iocfg(true, false, true, false, false, 0);
 139              	 .loc 1 201 22 is_stmt 0 view .LVU22
 140 0000 37B5     	 push {r0,r1,r2,r4,r5,lr}
 141              	.LCFI0:
 142              	 .cfi_def_cfa_offset 24
 143              	 .cfi_offset 0,-24
 144              	 .cfi_offset 1,-20
 145              	 .cfi_offset 2,-16
 146              	 .cfi_offset 4,-12
 147              	 .cfi_offset 5,-8
 148              	 .cfi_offset 14,-4
 149              	 .loc 1 202 5 view .LVU23
 150 0002 0C4D     	 ldr r5,.L14
 151 0004 0021     	 movs r1,#0
 152 0006 2B00     	 movs r3,r5
 153 0008 0122     	 movs r2,#1
 154 000a A433     	 adds r3,r3,#164
 155 000c 1C68     	 ldr r4,[r3]
 156 000e 1000     	 movs r0,r2
 157 0010 0B00     	 movs r3,r1
 158 0012 0191     	 str r1,[sp,#4]
 159 0014 0091     	 str r1,[sp]
 160 0016 A047     	 blx r4
 161              	.LVL5:
 203:C:/Users/alast/Desktop/University/Classes/4A/OpenSesame/smack_sl/src\smack_sl.c ****     for(uint8_t i = 0; i < 5; i++) {
 162              	 .loc 1 203 5 is_stmt 1 view .LVU24
 163              	.LBB2:
 164              	 .loc 1 203 9 view .LVU25
 165              	 .loc 1 203 24 view .LVU26
 166              	.LBE2:
 202:C:/Users/alast/Desktop/University/Classes/4A/OpenSesame/smack_sl/src\smack_sl.c ****     single_gpio_iocfg(true, false, true, false, false, 0);
 167              	 .loc 1 202 5 is_stmt 0 view .LVU27
 168 0018 0524     	 movs r4,#5
 169              	.LBB6:
 170              	.LBB3:
 204:C:/Users/alast/Desktop/University/Classes/4A/OpenSesame/smack_sl/src\smack_sl.c ****         set_singlegpio_out(0x1, 0);
 171              	 .loc 1 204 9 view .LVU28
 172 001a AC35     	 adds r5,r5,#172
 173 001c 2D68     	 ldr r5,[r5]
 174              	.LVL6:
 175              	.L12:
 176              	 .loc 1 204 9 is_stmt 1 view .LVU29
 177 001e 0021     	 movs r1,#0
 178 0020 0120     	 movs r0,#1
 179 0022 A847     	 blx r5
 180              	.LVL7:
 205:C:/Users/alast/Desktop/University/Classes/4A/OpenSesame/smack_sl/src\smack_sl.c ****         uint32_t cnt = 30000000;
 181              	 .loc 1 205 9 view .LVU30
 206:C:/Users/alast/Desktop/University/Classes/4A/OpenSesame/smack_sl/src\smack_sl.c ****         while(cnt > 0){
 182              	 .loc 1 206 9 view .LVU31
 183              	 .loc 1 206 14 view .LVU32
 207:C:/Users/alast/Desktop/University/Classes/4A/OpenSesame/smack_sl/src\smack_sl.c ****             cnt--;
 208:C:/Users/alast/Desktop/University/Classes/4A/OpenSesame/smack_sl/src\smack_sl.c ****         }
 209:C:/Users/alast/Desktop/University/Classes/4A/OpenSesame/smack_sl/src\smack_sl.c ****         set_singlegpio_out(0x0, 0);
 184              	 .loc 1 209 9 view .LVU33
 185 0024 0021     	 movs r1,#0
 186              	.LBE3:
 203:C:/Users/alast/Desktop/University/Classes/4A/OpenSesame/smack_sl/src\smack_sl.c ****         set_singlegpio_out(0x1, 0);
 187              	 .loc 1 203 5 is_stmt 0 view .LVU34
 188 0026 013C     	 subs r4,r4,#1
 189              	.LVL8:
 190              	.LBB4:
 191              	 .loc 1 209 9 view .LVU35
 192 0028 0800     	 movs r0,r1
 193              	.LBE4:
 203:C:/Users/alast/Desktop/University/Classes/4A/OpenSesame/smack_sl/src\smack_sl.c ****         set_singlegpio_out(0x1, 0);
 194              	 .loc 1 203 5 view .LVU36
 195 002a E4B2     	 uxtb r4,r4
 196              	.LBB5:
 197              	 .loc 1 209 9 view .LVU37
 198 002c A847     	 blx r5
 199              	.LVL9:
 210:C:/Users/alast/Desktop/University/Classes/4A/OpenSesame/smack_sl/src\smack_sl.c ****         cnt = 30000000;
 200              	 .loc 1 210 9 is_stmt 1 view .LVU38
 211:C:/Users/alast/Desktop/University/Classes/4A/OpenSesame/smack_sl/src\smack_sl.c ****         while(cnt > 0){
 201              	 .loc 1 211 9 view .LVU39
 202              	 .loc 1 211 14 view .LVU40
 203              	.LBE5:
 203:C:/Users/alast/Desktop/University/Classes/4A/OpenSesame/smack_sl/src\smack_sl.c ****         set_singlegpio_out(0x1, 0);
 204              	 .loc 1 203 31 view .LVU41
 203:C:/Users/alast/Desktop/University/Classes/4A/OpenSesame/smack_sl/src\smack_sl.c ****         set_singlegpio_out(0x1, 0);
 205              	 .loc 1 203 24 view .LVU42
 203:C:/Users/alast/Desktop/University/Classes/4A/OpenSesame/smack_sl/src\smack_sl.c ****         set_singlegpio_out(0x1, 0);
 206              	 .loc 1 203 5 is_stmt 0 view .LVU43
 207 002e 002C     	 cmp r4,#0
 208 0030 F5D1     	 bne .L12
 209              	.LBE6:
 212:C:/Users/alast/Desktop/University/Classes/4A/OpenSesame/smack_sl/src\smack_sl.c ****             cnt--;
 213:C:/Users/alast/Desktop/University/Classes/4A/OpenSesame/smack_sl/src\smack_sl.c ****         }
 214:C:/Users/alast/Desktop/University/Classes/4A/OpenSesame/smack_sl/src\smack_sl.c ****     }
 215:C:/Users/alast/Desktop/University/Classes/4A/OpenSesame/smack_sl/src\smack_sl.c **** }
 210              	 .loc 1 215 1 view .LVU44
 211              	 
 212 0032 37BD     	 pop {r0,r1,r2,r4,r5,pc}
 213              	.L15:
 214              	 .align 2
 215              	.L14:
 216 0034 00000000 	 .word rom_func_table
 217              	 .cfi_endproc
 218              	.LFE46:
 220              	 .section .text._nvm_start,"ax",%progbits
 221              	 .align 1
 222              	 .global _nvm_start
 223              	 .syntax unified
 224              	 .code 16
 225              	 .thumb_func
 226              	 .fpu softvfp
 228              	_nvm_start:
 229              	.LFB47:
 216:C:/Users/alast/Desktop/University/Classes/4A/OpenSesame/smack_sl/src\smack_sl.c **** 
 217:C:/Users/alast/Desktop/University/Classes/4A/OpenSesame/smack_sl/src\smack_sl.c **** // Start of the application program
 218:C:/Users/alast/Desktop/University/Classes/4A/OpenSesame/smack_sl/src\smack_sl.c **** void _nvm_start(void)
 219:C:/Users/alast/Desktop/University/Classes/4A/OpenSesame/smack_sl/src\smack_sl.c **** {
 230              	 .loc 1 219 1 is_stmt 1 view-0
 231              	 .cfi_startproc
 232              	 
 233              	 
 234              	 
 220:C:/Users/alast/Desktop/University/Classes/4A/OpenSesame/smack_sl/src\smack_sl.c ****     nfc_init(); 
 235              	 .loc 1 220 5 view .LVU46
 219:C:/Users/alast/Desktop/University/Classes/4A/OpenSesame/smack_sl/src\smack_sl.c ****     nfc_init(); 
 236              	 .loc 1 219 1 is_stmt 0 view .LVU47
 237 0000 73B5     	 push {r0,r1,r4,r5,r6,lr}
 238              	.LCFI1:
 239              	 .cfi_def_cfa_offset 24
 240              	 .cfi_offset 0,-24
 241              	 .cfi_offset 1,-20
 242              	 .cfi_offset 4,-16
 243              	 .cfi_offset 5,-12
 244              	 .cfi_offset 6,-8
 245              	 .cfi_offset 14,-4
 246              	 .loc 1 220 5 view .LVU48
 247 0002 0F4C     	 ldr r4,.L19
 248 0004 2600     	 movs r6,r4
 249 0006 FC36     	 adds r6,r6,#252
 250 0008 B36C     	 ldr r3,[r6,#72]
 251 000a 9847     	 blx r3
 252              	.LVL10:
 221:C:/Users/alast/Desktop/University/Classes/4A/OpenSesame/smack_sl/src\smack_sl.c ****     init_dand();
 253              	 .loc 1 221 5 is_stmt 1 view .LVU49
 254 000c 236A     	 ldr r3,[r4,#32]
 255 000e 0193     	 str r3,[sp,#4]
 256 0010 9847     	 blx r3
 257              	.LVL11:
 222:C:/Users/alast/Desktop/University/Classes/4A/OpenSesame/smack_sl/src\smack_sl.c ****     vars_init();
 258              	 .loc 1 222 5 view .LVU50
 259 0012 FFF7FEFF 	 bl vars_init
 260              	.LVL12:
 223:C:/Users/alast/Desktop/University/Classes/4A/OpenSesame/smack_sl/src\smack_sl.c ****     
 224:C:/Users/alast/Desktop/University/Classes/4A/OpenSesame/smack_sl/src\smack_sl.c ****     Mailbox_t* mbx = get_mailbox_address();
 261              	 .loc 1 224 5 view .LVU51
 262              	 .loc 1 224 22 is_stmt 0 view .LVU52
 263 0016 636A     	 ldr r3,[r4,#36]
 264 0018 0193     	 str r3,[sp,#4]
 265 001a 9847     	 blx r3
 266              	.LVL13:
 225:C:/Users/alast/Desktop/University/Classes/4A/OpenSesame/smack_sl/src\smack_sl.c ****     
 226:C:/Users/alast/Desktop/University/Classes/4A/OpenSesame/smack_sl/src\smack_sl.c ****     // register_function(1, &led_blink);
 227:C:/Users/alast/Desktop/University/Classes/4A/OpenSesame/smack_sl/src\smack_sl.c ****     // volatile NFC_State_enum_t state = handle_DAND_protocol();
 228:C:/Users/alast/Desktop/University/Classes/4A/OpenSesame/smack_sl/src\smack_sl.c ****     // volatile NFC_Frame_enum_t frame_type = classify_frame();
 229:C:/Users/alast/Desktop/University/Classes/4A/OpenSesame/smack_sl/src\smack_sl.c ****     nfc_state_machine();
 267              	 .loc 1 229 5 view .LVU53
 268 001c B36F     	 ldr r3,[r6,#120]
 224:C:/Users/alast/Desktop/University/Classes/4A/OpenSesame/smack_sl/src\smack_sl.c ****     
 269              	 .loc 1 224 22 view .LVU54
 270 001e 0500     	 movs r5,r0
 271              	.LVL14:
 272              	 .loc 1 229 5 is_stmt 1 view .LVU55
 273 0020 9847     	 blx r3
 274              	.LVL15:
 275              	.L18:
 230:C:/Users/alast/Desktop/University/Classes/4A/OpenSesame/smack_sl/src\smack_sl.c **** 
 231:C:/Users/alast/Desktop/University/Classes/4A/OpenSesame/smack_sl/src\smack_sl.c ****     while (true)
 276              	 .loc 1 231 5 view .LVU56
 232:C:/Users/alast/Desktop/University/Classes/4A/OpenSesame/smack_sl/src\smack_sl.c ****     {
 233:C:/Users/alast/Desktop/University/Classes/4A/OpenSesame/smack_sl/src\smack_sl.c ****         asm("WFE");
 277              	 .loc 1 233 9 view .LVU57
 278              	 .syntax divided
 279              	
 280 0022 20BF     	 WFE
 281              	
 234:C:/Users/alast/Desktop/University/Classes/4A/OpenSesame/smack_sl/src\smack_sl.c ****         read_frame();
 282              	 .loc 1 234 9 view .LVU58
 283              	 .thumb
 284              	 .syntax unified
 285 0024 2600     	 movs r6,r4
 286 0026 FC36     	 adds r6,r6,#252
 287 0028 F36C     	 ldr r3,[r6,#76]
 288 002a 9847     	 blx r3
 289              	.LVL16:
 235:C:/Users/alast/Desktop/University/Classes/4A/OpenSesame/smack_sl/src\smack_sl.c ****         nfc_state_machine();
 290              	 .loc 1 235 9 view .LVU59
 291 002c B36F     	 ldr r3,[r6,#120]
 292 002e 9847     	 blx r3
 293              	.LVL17:
 236:C:/Users/alast/Desktop/University/Classes/4A/OpenSesame/smack_sl/src\smack_sl.c **** 
 237:C:/Users/alast/Desktop/University/Classes/4A/OpenSesame/smack_sl/src\smack_sl.c ****         if(mbx->content[0] == 0xDEADBEEF){
 294              	 .loc 1 237 9 view .LVU60
 295              	 .loc 1 237 11 is_stmt 0 view .LVU61
 296 0030 044B     	 ldr r3,.L19+4
 297 0032 2A68     	 ldr r2,[r5]
 298 0034 9A42     	 cmp r2,r3
 299 0036 01D1     	 bne .L17
 238:C:/Users/alast/Desktop/University/Classes/4A/OpenSesame/smack_sl/src\smack_sl.c ****             led_blink();
 300              	 .loc 1 238 13 is_stmt 1 view .LVU62
 301 0038 FFF7FEFF 	 bl led_blink
 302              	.LVL18:
 303              	.L17:
 239:C:/Users/alast/Desktop/University/Classes/4A/OpenSesame/smack_sl/src\smack_sl.c ****         }
 240:C:/Users/alast/Desktop/University/Classes/4A/OpenSesame/smack_sl/src\smack_sl.c ****         /*
 241:C:/Users/alast/Desktop/University/Classes/4A/OpenSesame/smack_sl/src\smack_sl.c ****         // Uncomment these lines if you want to output data on pin 1
 242:C:/Users/alast/Desktop/University/Classes/4A/OpenSesame/smack_sl/src\smack_sl.c ****         SCUS_GPIO_OUT_EN__SET(1);
 243:C:/Users/alast/Desktop/University/Classes/4A/OpenSesame/smack_sl/src\smack_sl.c ****         SCUC_GPIO_OUT_DAT__SET(0x1 & BIT_TO_PUT_ON_PIN);
 244:C:/Users/alast/Desktop/University/Classes/4A/OpenSesame/smack_sl/src\smack_sl.c ****         */
 245:C:/Users/alast/Desktop/University/Classes/4A/OpenSesame/smack_sl/src\smack_sl.c ****         /* ****************** THIS CODE SHOULD NOT BE ALTERED FOR THE TIME BEING ******************
 246:C:/Users/alast/Desktop/University/Classes/4A/OpenSesame/smack_sl/src\smack_sl.c ****         asm("WFI"); 
 304              	 .loc 1 246 9 view .LVU63
 305              	 .syntax divided
 306              	
 307 003c 30BF     	 WFI
 308              	
 231:C:/Users/alast/Desktop/University/Classes/4A/OpenSesame/smack_sl/src\smack_sl.c ****     {
 309              	 .loc 1 231 11 view .LVU64
 233:C:/Users/alast/Desktop/University/Classes/4A/OpenSesame/smack_sl/src\smack_sl.c ****         read_frame();
 310              	 .loc 1 233 9 is_stmt 0 view .LVU65
 311              	 .thumb
 312              	 .syntax unified
 313 003e F0E7     	 b .L18
 314              	.L20:
 315              	 .align 2
 316              	.L19:
 317 0040 00000000 	 .word rom_func_table
 318 0044 EFBEADDE 	 .word -559038737
 319              	 .cfi_endproc
 320              	.LFE47:
 322              	 .global sl_counter
 323              	 .global smack_sl_tag
 324              	 .section .bss.example_counter,"aw",%nobits
 325              	 .align 2
 326              	 .set .LANCHOR0,.+0
 329              	example_counter:
 330 0000 00000000 	 .space 4
 331              	 .section .bss.sl_counter,"aw",%nobits
 332              	 .align 2
 335              	sl_counter:
 336 0000 00000000 	 .space 4
 337              	 .section .rodata.smack_sl_tag,"a"
 340              	smack_sl_tag:
 341 0000 05C0BEEF 	 .ascii "\005\300\276\357\336\255\000\000\377\377\377\377\341"
 341      DEAD0000 
 341      FFFFFFFF 
 341      E1
 342 000d 100B0F03 	 .ascii "\020\013\017\003O\321\001KT\002enInfineon Technolog"
 342      4FD1014B 
 342      5402656E 
 342      496E6669 
 342      6E656F6E 
 343 002b 69657320 	 .ascii "ies AG  NGC1080  SmAcK  05C0BEEFDEAD0000  V4.0.1 (N"
 343      41472020 
 343      4E474331 
 343      30383020 
 343      20536D41 
 344 005e 564D29FE 	 .ascii "VM)\376\377\377\377\377\377\377"
 344      FFFFFFFF 
 344      FFFF
 345              	 .text
 346              	.Letext0:
 347              	 .file 2 "c:\\users\\alast\\desktop\\university\\classes\\4a\\opensesame\\tools\\extern\\gcc-arm-none-eabi\\arm-none-eabi\\include\\machine\\_default_types.h"
 348              	 .file 3 "c:\\users\\alast\\desktop\\university\\classes\\4a\\opensesame\\tools\\extern\\gcc-arm-none-eabi\\arm-none-eabi\\include\\sys\\_stdint.h"
 349              	 .file 4 "C:/Users/alast/Desktop/University/Classes/4A/OpenSesame/smack_rom/libs/smack_lib/inc/aes_drv.h"
 350              	 .file 5 "C:/Users/alast/Desktop/University/Classes/4A/OpenSesame/smack_rom/libs/smack_lib/inc/aparam.h"
 351              	 .file 6 "C:/Users/alast/Desktop/University/Classes/4A/OpenSesame/smack_rom/libs/smack_lib/inc/dand_handler.h"
 352              	 .file 7 "C:/Users/alast/Desktop/University/Classes/4A/OpenSesame/smack_rom/libs/smack_lib/inc/dparam.h"
 353              	 .file 8 "C:/Users/alast/Desktop/University/Classes/4A/OpenSesame/smack_rom/libs/smack_lib/inc/hbctrl_drv.h"
 354              	 .file 9 "C:/Users/alast/Desktop/University/Classes/4A/OpenSesame/smack_rom/libs/smack_lib/inc/hwdiv.h"
 355              	 .file 10 "C:/Users/alast/Desktop/University/Classes/4A/OpenSesame/smack_rom/libs/smack_lib/inc/nfc_handler.h"
 356              	 .file 11 "C:/Users/alast/Desktop/University/Classes/4A/OpenSesame/smack_rom/libs/smack_lib/inc/nvm.h"
 357              	 .file 12 "C:/Users/alast/Desktop/University/Classes/4A/OpenSesame/smack_rom/libs/smack_lib/inc/pmu.h"
 358              	 .file 13 "C:/Users/alast/Desktop/University/Classes/4A/OpenSesame/smack_rom/libs/smack_lib/inc/sense_ctrl.h"
 359              	 .file 14 "C:/Users/alast/Desktop/University/Classes/4A/OpenSesame/smack_rom/libs/smack_lib/inc/ssp_drv.h"
 360              	 .file 15 "C:/Users/alast/Desktop/University/Classes/4A/OpenSesame/smack_rom/libs/smack_lib/inc/sys_tim_drv.h"
 361              	 .file 16 "C:/Users/alast/Desktop/University/Classes/4A/OpenSesame/smack_rom/libs/smack_lib/inc/uart_drv.h"
 362              	 .file 17 "C:/Users/alast/Desktop/University/Classes/4A/OpenSesame/smack_rom/libs/smack_lib/inc/wdt.h"
 363              	 .file 18 "C:/Users/alast/Desktop/University/Classes/4A/OpenSesame/smack_rom/libs/smack_lib/inc/rom_lib.h"
 364              	 .file 19 "C:/Users/alast/Desktop/University/Classes/4A/OpenSesame/smack_sl/inc/smack_sl.h"
 365              	 .file 20 "C:/Users/alast/Desktop/University/Classes/4A/OpenSesame/smack_sl/inc/smack_dataexchange.h"