   1              	 .cpu cortex-m0
   2              	 .eabi_attribute 20,1
   3              	 .eabi_attribute 21,1
   4              	 .eabi_attribute 23,3
   5              	 .eabi_attribute 24,1
   6              	 .eabi_attribute 25,1
   7              	 .eabi_attribute 26,1
   8              	 .eabi_attribute 30,4
   9              	 .eabi_attribute 34,0
  10              	 .eabi_attribute 18,4
  11              	 .file "startup_smack.c"
  12              	 .text
  13              	.Ltext0:
  14              	 .cfi_sections .debug_frame
  15              	 .section .text.Default_Handler,"ax",%progbits
  16              	 .align 1
  17              	 .global Default_Handler
  18              	 .arch armv6s-m
  19              	 .syntax unified
  20              	 .code 16
  21              	 .thumb_func
  22              	 .fpu softvfp
  24              	Default_Handler:
  25              	.LFB44:
  26              	 .file 1 "Z:/Documents/GitHub/OpenSesame/smack_sl/src/startup_smack.c"
   1:Z:/Documents/GitHub/OpenSesame/smack_sl/src\startup_smack.c **** /* ============================================================================
   2:Z:/Documents/GitHub/OpenSesame/smack_sl/src\startup_smack.c **** ** Copyright (c) 2021 Infineon Technologies AG
   3:Z:/Documents/GitHub/OpenSesame/smack_sl/src\startup_smack.c **** **               All rights reserved.
   4:Z:/Documents/GitHub/OpenSesame/smack_sl/src\startup_smack.c **** **               www.infineon.com
   5:Z:/Documents/GitHub/OpenSesame/smack_sl/src\startup_smack.c **** ** ============================================================================
   6:Z:/Documents/GitHub/OpenSesame/smack_sl/src\startup_smack.c **** *
   7:Z:/Documents/GitHub/OpenSesame/smack_sl/src\startup_smack.c **** */
   8:Z:/Documents/GitHub/OpenSesame/smack_sl/src\startup_smack.c **** 
   9:Z:/Documents/GitHub/OpenSesame/smack_sl/src\startup_smack.c **** /******************************************************************************
  10:Z:/Documents/GitHub/OpenSesame/smack_sl/src\startup_smack.c ****  * @file     startup_smack.c
  11:Z:/Documents/GitHub/OpenSesame/smack_sl/src\startup_smack.c ****  * @brief    CMSIS-Core(M) Device Startup File for a Cortex-M0 Device
  12:Z:/Documents/GitHub/OpenSesame/smack_sl/src\startup_smack.c ****  * @version  V2.0.0
  13:Z:/Documents/GitHub/OpenSesame/smack_sl/src\startup_smack.c ****  * @date     04. June 2019
  14:Z:/Documents/GitHub/OpenSesame/smack_sl/src\startup_smack.c ****  ******************************************************************************/
  15:Z:/Documents/GitHub/OpenSesame/smack_sl/src\startup_smack.c **** /*
  16:Z:/Documents/GitHub/OpenSesame/smack_sl/src\startup_smack.c ****  * Copyright (c) 2009-2019 Arm Limited. All rights reserved.
  17:Z:/Documents/GitHub/OpenSesame/smack_sl/src\startup_smack.c ****  *
  18:Z:/Documents/GitHub/OpenSesame/smack_sl/src\startup_smack.c ****  * SPDX-License-Identifier: Apache-2.0
  19:Z:/Documents/GitHub/OpenSesame/smack_sl/src\startup_smack.c ****  *
  20:Z:/Documents/GitHub/OpenSesame/smack_sl/src\startup_smack.c ****  * Licensed under the Apache License, Version 2.0 (the License); you may
  21:Z:/Documents/GitHub/OpenSesame/smack_sl/src\startup_smack.c ****  * not use this file except in compliance with the License.
  22:Z:/Documents/GitHub/OpenSesame/smack_sl/src\startup_smack.c ****  * You may obtain a copy of the License at
  23:Z:/Documents/GitHub/OpenSesame/smack_sl/src\startup_smack.c ****  *
  24:Z:/Documents/GitHub/OpenSesame/smack_sl/src\startup_smack.c ****  * www.apache.org/licenses/LICENSE-2.0
  25:Z:/Documents/GitHub/OpenSesame/smack_sl/src\startup_smack.c ****  *
  26:Z:/Documents/GitHub/OpenSesame/smack_sl/src\startup_smack.c ****  * Unless required by applicable law or agreed to in writing, software
  27:Z:/Documents/GitHub/OpenSesame/smack_sl/src\startup_smack.c ****  * distributed under the License is distributed on an AS IS BASIS, WITHOUT
  28:Z:/Documents/GitHub/OpenSesame/smack_sl/src\startup_smack.c ****  * WARRANTIES OR CONDITIONS OF ANY KIND, either express or implied.
  29:Z:/Documents/GitHub/OpenSesame/smack_sl/src\startup_smack.c ****  * See the License for the specific language governing permissions and
  30:Z:/Documents/GitHub/OpenSesame/smack_sl/src\startup_smack.c ****  * limitations under the License.
  31:Z:/Documents/GitHub/OpenSesame/smack_sl/src\startup_smack.c ****  */
  32:Z:/Documents/GitHub/OpenSesame/smack_sl/src\startup_smack.c **** 
  33:Z:/Documents/GitHub/OpenSesame/smack_sl/src\startup_smack.c **** #include "smack.h"
  34:Z:/Documents/GitHub/OpenSesame/smack_sl/src\startup_smack.c **** 
  35:Z:/Documents/GitHub/OpenSesame/smack_sl/src\startup_smack.c **** /*----------------------------------------------------------------------------
  36:Z:/Documents/GitHub/OpenSesame/smack_sl/src\startup_smack.c ****   Exception / Interrupt Handler Function Prototype
  37:Z:/Documents/GitHub/OpenSesame/smack_sl/src\startup_smack.c ****  *----------------------------------------------------------------------------*/
  38:Z:/Documents/GitHub/OpenSesame/smack_sl/src\startup_smack.c **** typedef void( *pFunc )( void );
  39:Z:/Documents/GitHub/OpenSesame/smack_sl/src\startup_smack.c **** 
  40:Z:/Documents/GitHub/OpenSesame/smack_sl/src\startup_smack.c **** /*----------------------------------------------------------------------------
  41:Z:/Documents/GitHub/OpenSesame/smack_sl/src\startup_smack.c ****   External References
  42:Z:/Documents/GitHub/OpenSesame/smack_sl/src\startup_smack.c ****  *----------------------------------------------------------------------------*/
  43:Z:/Documents/GitHub/OpenSesame/smack_sl/src\startup_smack.c **** extern uint32_t __INITIAL_SP;
  44:Z:/Documents/GitHub/OpenSesame/smack_sl/src\startup_smack.c **** 
  45:Z:/Documents/GitHub/OpenSesame/smack_sl/src\startup_smack.c **** extern __NO_RETURN void __NVM_PROGRAM_START(void);
  46:Z:/Documents/GitHub/OpenSesame/smack_sl/src\startup_smack.c **** 
  47:Z:/Documents/GitHub/OpenSesame/smack_sl/src\startup_smack.c **** /*----------------------------------------------------------------------------
  48:Z:/Documents/GitHub/OpenSesame/smack_sl/src\startup_smack.c ****   Internal References
  49:Z:/Documents/GitHub/OpenSesame/smack_sl/src\startup_smack.c ****  *----------------------------------------------------------------------------*/
  50:Z:/Documents/GitHub/OpenSesame/smack_sl/src\startup_smack.c **** void             Default_Handler(void);
  51:Z:/Documents/GitHub/OpenSesame/smack_sl/src\startup_smack.c **** void __NO_RETURN NVM_Reset_Handler  (void);
  52:Z:/Documents/GitHub/OpenSesame/smack_sl/src\startup_smack.c **** 
  53:Z:/Documents/GitHub/OpenSesame/smack_sl/src\startup_smack.c **** /*----------------------------------------------------------------------------
  54:Z:/Documents/GitHub/OpenSesame/smack_sl/src\startup_smack.c ****   Exception / Interrupt Handler
  55:Z:/Documents/GitHub/OpenSesame/smack_sl/src\startup_smack.c ****  *----------------------------------------------------------------------------*/
  56:Z:/Documents/GitHub/OpenSesame/smack_sl/src\startup_smack.c **** /* Exceptions */
  57:Z:/Documents/GitHub/OpenSesame/smack_sl/src\startup_smack.c **** void NMI_Handler            (void) __attribute__ ((weak, alias("Default_Handler")));
  58:Z:/Documents/GitHub/OpenSesame/smack_sl/src\startup_smack.c **** void HardFault_Handler      (void) __attribute__ ((weak, alias("Default_Handler")));
  59:Z:/Documents/GitHub/OpenSesame/smack_sl/src\startup_smack.c **** void SVC_Handler            (void) __attribute__ ((weak, alias("Default_Handler")));
  60:Z:/Documents/GitHub/OpenSesame/smack_sl/src\startup_smack.c **** void PendSV_Handler         (void) __attribute__ ((weak, alias("Default_Handler")));
  61:Z:/Documents/GitHub/OpenSesame/smack_sl/src\startup_smack.c **** void SysTick_Handler        (void) __attribute__ ((weak, alias("Default_Handler")));
  62:Z:/Documents/GitHub/OpenSesame/smack_sl/src\startup_smack.c **** 
  63:Z:/Documents/GitHub/OpenSesame/smack_sl/src\startup_smack.c **** void Cl_uart_Handler        (void) __attribute__ ((weak, alias("Default_Handler")));
  64:Z:/Documents/GitHub/OpenSesame/smack_sl/src\startup_smack.c **** void Event_Bus1_Handler     (void) __attribute__ ((weak, alias("Default_Handler")));
  65:Z:/Documents/GitHub/OpenSesame/smack_sl/src\startup_smack.c **** void Event_Bus2_Handler     (void) __attribute__ ((weak, alias("Default_Handler")));
  66:Z:/Documents/GitHub/OpenSesame/smack_sl/src\startup_smack.c **** void Event_Bus3_Handler     (void) __attribute__ ((weak, alias("Default_Handler")));
  67:Z:/Documents/GitHub/OpenSesame/smack_sl/src\startup_smack.c **** void Event_Bus4_Handler     (void) __attribute__ ((weak, alias("Default_Handler")));
  68:Z:/Documents/GitHub/OpenSesame/smack_sl/src\startup_smack.c **** void Event_Bus5_Handler     (void) __attribute__ ((weak, alias("Default_Handler")));
  69:Z:/Documents/GitHub/OpenSesame/smack_sl/src\startup_smack.c **** void Event_Bus6_Handler     (void) __attribute__ ((weak, alias("Default_Handler")));
  70:Z:/Documents/GitHub/OpenSesame/smack_sl/src\startup_smack.c **** void Event_Bus7_Handler     (void) __attribute__ ((weak, alias("Default_Handler")));
  71:Z:/Documents/GitHub/OpenSesame/smack_sl/src\startup_smack.c **** void Event_Bus8_Handler     (void) __attribute__ ((weak, alias("Default_Handler")));
  72:Z:/Documents/GitHub/OpenSesame/smack_sl/src\startup_smack.c **** void HPrio_Matrix0_Handler  (void) __attribute__ ((weak, alias("Default_Handler")));
  73:Z:/Documents/GitHub/OpenSesame/smack_sl/src\startup_smack.c **** void HPrio_Matrix1_Handler  (void) __attribute__ ((weak, alias("Default_Handler")));
  74:Z:/Documents/GitHub/OpenSesame/smack_sl/src\startup_smack.c **** void HPrio_Matrix2_Handler  (void) __attribute__ ((weak, alias("Default_Handler")));
  75:Z:/Documents/GitHub/OpenSesame/smack_sl/src\startup_smack.c **** void HPrio_Matrix3_Handler  (void) __attribute__ ((weak, alias("Default_Handler")));
  76:Z:/Documents/GitHub/OpenSesame/smack_sl/src\startup_smack.c **** void HPrio_Matrix4_Handler  (void) __attribute__ ((weak, alias("Default_Handler")));
  77:Z:/Documents/GitHub/OpenSesame/smack_sl/src\startup_smack.c **** void HPrio_Matrix5_Handler  (void) __attribute__ ((weak, alias("Default_Handler")));
  78:Z:/Documents/GitHub/OpenSesame/smack_sl/src\startup_smack.c **** void WDT_Handler            (void) __attribute__ ((weak, alias("Default_Handler")));
  79:Z:/Documents/GitHub/OpenSesame/smack_sl/src\startup_smack.c **** void HW_field_off_Handler   (void) __attribute__ ((weak, alias("Default_Handler")));
  80:Z:/Documents/GitHub/OpenSesame/smack_sl/src\startup_smack.c **** void HW_nvm_Handler         (void) __attribute__ ((weak, alias("Default_Handler")));
  81:Z:/Documents/GitHub/OpenSesame/smack_sl/src\startup_smack.c **** void Unused1_Handler        (void) __attribute__ ((weak, alias("Default_Handler")));
  82:Z:/Documents/GitHub/OpenSesame/smack_sl/src\startup_smack.c **** void Unused2_Handler        (void) __attribute__ ((weak, alias("Default_Handler")));
  83:Z:/Documents/GitHub/OpenSesame/smack_sl/src\startup_smack.c **** void Unused3_Handler        (void) __attribute__ ((weak, alias("Default_Handler")));
  84:Z:/Documents/GitHub/OpenSesame/smack_sl/src\startup_smack.c **** void Unused4_Handler        (void) __attribute__ ((weak, alias("Default_Handler")));
  85:Z:/Documents/GitHub/OpenSesame/smack_sl/src\startup_smack.c **** void Unused5_Handler        (void) __attribute__ ((weak, alias("Default_Handler")));
  86:Z:/Documents/GitHub/OpenSesame/smack_sl/src\startup_smack.c **** void Unused6_Handler        (void) __attribute__ ((weak, alias("Default_Handler")));
  87:Z:/Documents/GitHub/OpenSesame/smack_sl/src\startup_smack.c **** void Unused7_Handler        (void) __attribute__ ((weak, alias("Default_Handler")));
  88:Z:/Documents/GitHub/OpenSesame/smack_sl/src\startup_smack.c **** void Unused8_Handler        (void) __attribute__ ((weak, alias("Default_Handler")));
  89:Z:/Documents/GitHub/OpenSesame/smack_sl/src\startup_smack.c **** void Unused9_Handler        (void) __attribute__ ((weak, alias("Default_Handler")));
  90:Z:/Documents/GitHub/OpenSesame/smack_sl/src\startup_smack.c **** void Unused10_Handler       (void) __attribute__ ((weak, alias("Default_Handler")));
  91:Z:/Documents/GitHub/OpenSesame/smack_sl/src\startup_smack.c **** void Unused11_Handler       (void) __attribute__ ((weak, alias("Default_Handler")));
  92:Z:/Documents/GitHub/OpenSesame/smack_sl/src\startup_smack.c **** void Unused12_Handler       (void) __attribute__ ((weak, alias("Default_Handler")));
  93:Z:/Documents/GitHub/OpenSesame/smack_sl/src\startup_smack.c **** void Unused13_Handler       (void) __attribute__ ((weak, alias("Default_Handler")));
  94:Z:/Documents/GitHub/OpenSesame/smack_sl/src\startup_smack.c **** void Unused14_Handler       (void) __attribute__ ((weak, alias("Default_Handler")));
  95:Z:/Documents/GitHub/OpenSesame/smack_sl/src\startup_smack.c **** 
  96:Z:/Documents/GitHub/OpenSesame/smack_sl/src\startup_smack.c **** 
  97:Z:/Documents/GitHub/OpenSesame/smack_sl/src\startup_smack.c **** 
  98:Z:/Documents/GitHub/OpenSesame/smack_sl/src\startup_smack.c **** /*----------------------------------------------------------------------------
  99:Z:/Documents/GitHub/OpenSesame/smack_sl/src\startup_smack.c ****   Exception / Interrupt Vector table
 100:Z:/Documents/GitHub/OpenSesame/smack_sl/src\startup_smack.c ****  *----------------------------------------------------------------------------*/
 101:Z:/Documents/GitHub/OpenSesame/smack_sl/src\startup_smack.c **** 
 102:Z:/Documents/GitHub/OpenSesame/smack_sl/src\startup_smack.c **** #if defined ( __GNUC__ )
 103:Z:/Documents/GitHub/OpenSesame/smack_sl/src\startup_smack.c **** #pragma GCC diagnostic push
 104:Z:/Documents/GitHub/OpenSesame/smack_sl/src\startup_smack.c **** #pragma GCC diagnostic ignored "-Wpedantic"
 105:Z:/Documents/GitHub/OpenSesame/smack_sl/src\startup_smack.c **** #endif
 106:Z:/Documents/GitHub/OpenSesame/smack_sl/src\startup_smack.c **** 
 107:Z:/Documents/GitHub/OpenSesame/smack_sl/src\startup_smack.c **** extern const pFunc __VECTOR_TABLE[48];
 108:Z:/Documents/GitHub/OpenSesame/smack_sl/src\startup_smack.c **** const pFunc __VECTOR_TABLE[48] __VECTOR_TABLE_ATTRIBUTE =
 109:Z:/Documents/GitHub/OpenSesame/smack_sl/src\startup_smack.c **** {
 110:Z:/Documents/GitHub/OpenSesame/smack_sl/src\startup_smack.c ****     /*lint -e(611) warning suspicious cast */
 111:Z:/Documents/GitHub/OpenSesame/smack_sl/src\startup_smack.c ****     (pFunc)(&__INITIAL_SP),                   /*     Initial Stack Pointer */
 112:Z:/Documents/GitHub/OpenSesame/smack_sl/src\startup_smack.c ****     NVM_Reset_Handler,                        /*     Reset Handler */
 113:Z:/Documents/GitHub/OpenSesame/smack_sl/src\startup_smack.c ****     NMI_Handler,                              /* -14 NMI Handler */
 114:Z:/Documents/GitHub/OpenSesame/smack_sl/src\startup_smack.c ****     HardFault_Handler,                        /* -13 Hard Fault Handler */
 115:Z:/Documents/GitHub/OpenSesame/smack_sl/src\startup_smack.c ****     0,                                        /*     Reserved */
 116:Z:/Documents/GitHub/OpenSesame/smack_sl/src\startup_smack.c ****     0,                                        /*     Reserved */
 117:Z:/Documents/GitHub/OpenSesame/smack_sl/src\startup_smack.c ****     0,                                        /*     Reserved */
 118:Z:/Documents/GitHub/OpenSesame/smack_sl/src\startup_smack.c ****     0,                                        /*     Reserved */
 119:Z:/Documents/GitHub/OpenSesame/smack_sl/src\startup_smack.c ****     0,                                        /*     Reserved */
 120:Z:/Documents/GitHub/OpenSesame/smack_sl/src\startup_smack.c ****     0,                                        /*     Reserved */
 121:Z:/Documents/GitHub/OpenSesame/smack_sl/src\startup_smack.c ****     0,                                        /*     Reserved */
 122:Z:/Documents/GitHub/OpenSesame/smack_sl/src\startup_smack.c ****     SVC_Handler,                              /*  -5 SVCall Handler */
 123:Z:/Documents/GitHub/OpenSesame/smack_sl/src\startup_smack.c ****     0,                                        /*     Reserved */
 124:Z:/Documents/GitHub/OpenSesame/smack_sl/src\startup_smack.c ****     0,                                        /*     Reserved */
 125:Z:/Documents/GitHub/OpenSesame/smack_sl/src\startup_smack.c ****     PendSV_Handler,                           /*  -2 PendSV Handler */
 126:Z:/Documents/GitHub/OpenSesame/smack_sl/src\startup_smack.c ****     SysTick_Handler,                          /*  -1 SysTick Handler */
 127:Z:/Documents/GitHub/OpenSesame/smack_sl/src\startup_smack.c **** 
 128:Z:/Documents/GitHub/OpenSesame/smack_sl/src\startup_smack.c ****     /* Interrupts */
 129:Z:/Documents/GitHub/OpenSesame/smack_sl/src\startup_smack.c ****     Cl_uart_Handler,                          /*   0 Interrupt 0 */
 130:Z:/Documents/GitHub/OpenSesame/smack_sl/src\startup_smack.c ****     Event_Bus1_Handler,                       /*   1 Interrupt 1 */
 131:Z:/Documents/GitHub/OpenSesame/smack_sl/src\startup_smack.c ****     Event_Bus2_Handler,                       /*   2 Interrupt 2 */
 132:Z:/Documents/GitHub/OpenSesame/smack_sl/src\startup_smack.c ****     Event_Bus3_Handler,                       /*   3 Interrupt 3 */
 133:Z:/Documents/GitHub/OpenSesame/smack_sl/src\startup_smack.c ****     Event_Bus4_Handler,                       /*   4 Interrupt 4 */
 134:Z:/Documents/GitHub/OpenSesame/smack_sl/src\startup_smack.c ****     Event_Bus5_Handler,                       /*   5 Interrupt 5 */
 135:Z:/Documents/GitHub/OpenSesame/smack_sl/src\startup_smack.c ****     Event_Bus6_Handler,                       /*   6 Interrupt 6 */
 136:Z:/Documents/GitHub/OpenSesame/smack_sl/src\startup_smack.c ****     Event_Bus7_Handler,                       /*   7 Interrupt 7 */
 137:Z:/Documents/GitHub/OpenSesame/smack_sl/src\startup_smack.c ****     Event_Bus8_Handler,                       /*   8 Interrupt 8 */
 138:Z:/Documents/GitHub/OpenSesame/smack_sl/src\startup_smack.c ****     HPrio_Matrix0_Handler,                    /*   9 Interrupt 9 */
 139:Z:/Documents/GitHub/OpenSesame/smack_sl/src\startup_smack.c ****     HPrio_Matrix1_Handler,                    /*  10 Interrupt 10 */
 140:Z:/Documents/GitHub/OpenSesame/smack_sl/src\startup_smack.c ****     HPrio_Matrix2_Handler,                    /*  11 Interrupt 11 */
 141:Z:/Documents/GitHub/OpenSesame/smack_sl/src\startup_smack.c ****     HPrio_Matrix3_Handler,                    /*  12 Interrupt 12 */
 142:Z:/Documents/GitHub/OpenSesame/smack_sl/src\startup_smack.c ****     HPrio_Matrix4_Handler,                    /*  13 Interrupt 13 */
 143:Z:/Documents/GitHub/OpenSesame/smack_sl/src\startup_smack.c ****     HPrio_Matrix5_Handler,                    /*  14 Interrupt 14 */
 144:Z:/Documents/GitHub/OpenSesame/smack_sl/src\startup_smack.c ****     WDT_Handler,                              /*  15 Interrupt 15 */
 145:Z:/Documents/GitHub/OpenSesame/smack_sl/src\startup_smack.c ****     HW_field_off_Handler,                     /*  16 Interrupt 16 */
 146:Z:/Documents/GitHub/OpenSesame/smack_sl/src\startup_smack.c ****     HW_nvm_Handler,                           /*  17 Interrupt 17 */
 147:Z:/Documents/GitHub/OpenSesame/smack_sl/src\startup_smack.c ****     Unused1_Handler,                          /*  18 Interrupt 18 */
 148:Z:/Documents/GitHub/OpenSesame/smack_sl/src\startup_smack.c ****     Unused2_Handler,                          /*  19 Interrupt 19 */
 149:Z:/Documents/GitHub/OpenSesame/smack_sl/src\startup_smack.c ****     Unused3_Handler,                          /*  20 Interrupt 20 */
 150:Z:/Documents/GitHub/OpenSesame/smack_sl/src\startup_smack.c ****     Unused4_Handler,                          /*  21 Interrupt 21 */
 151:Z:/Documents/GitHub/OpenSesame/smack_sl/src\startup_smack.c ****     Unused5_Handler,                          /*  22 Interrupt 22 */
 152:Z:/Documents/GitHub/OpenSesame/smack_sl/src\startup_smack.c ****     Unused6_Handler,                          /*  23 Interrupt 23 */
 153:Z:/Documents/GitHub/OpenSesame/smack_sl/src\startup_smack.c ****     Unused7_Handler,                          /*  24 Interrupt 24 */
 154:Z:/Documents/GitHub/OpenSesame/smack_sl/src\startup_smack.c ****     Unused8_Handler,                          /*  25 Interrupt 25 */
 155:Z:/Documents/GitHub/OpenSesame/smack_sl/src\startup_smack.c ****     Unused9_Handler,                          /*  26 Interrupt 26 */
 156:Z:/Documents/GitHub/OpenSesame/smack_sl/src\startup_smack.c ****     Unused10_Handler,                         /*  27 Interrupt 27 */
 157:Z:/Documents/GitHub/OpenSesame/smack_sl/src\startup_smack.c ****     Unused11_Handler,                         /*  28 Interrupt 28 */
 158:Z:/Documents/GitHub/OpenSesame/smack_sl/src\startup_smack.c ****     Unused12_Handler,                         /*  29 Interrupt 29 */
 159:Z:/Documents/GitHub/OpenSesame/smack_sl/src\startup_smack.c ****     Unused13_Handler,                         /*  30 Interrupt 30 */
 160:Z:/Documents/GitHub/OpenSesame/smack_sl/src\startup_smack.c ****     Unused14_Handler                          /*  31 Interrupt 31 */
 161:Z:/Documents/GitHub/OpenSesame/smack_sl/src\startup_smack.c **** };
 162:Z:/Documents/GitHub/OpenSesame/smack_sl/src\startup_smack.c **** 
 163:Z:/Documents/GitHub/OpenSesame/smack_sl/src\startup_smack.c **** #if defined ( __GNUC__ )
 164:Z:/Documents/GitHub/OpenSesame/smack_sl/src\startup_smack.c **** #pragma GCC diagnostic pop
 165:Z:/Documents/GitHub/OpenSesame/smack_sl/src\startup_smack.c **** #endif
 166:Z:/Documents/GitHub/OpenSesame/smack_sl/src\startup_smack.c **** 
 167:Z:/Documents/GitHub/OpenSesame/smack_sl/src\startup_smack.c **** /*----------------------------------------------------------------------------
 168:Z:/Documents/GitHub/OpenSesame/smack_sl/src\startup_smack.c ****   Reset Handler called on controller reset
 169:Z:/Documents/GitHub/OpenSesame/smack_sl/src\startup_smack.c ****  *----------------------------------------------------------------------------*/
 170:Z:/Documents/GitHub/OpenSesame/smack_sl/src\startup_smack.c **** void NVM_Reset_Handler(void)
 171:Z:/Documents/GitHub/OpenSesame/smack_sl/src\startup_smack.c **** {
 172:Z:/Documents/GitHub/OpenSesame/smack_sl/src\startup_smack.c ****     __NVM_PROGRAM_START();                    /* Enter NVM PreMain (C library entry point) */
 173:Z:/Documents/GitHub/OpenSesame/smack_sl/src\startup_smack.c **** }
 174:Z:/Documents/GitHub/OpenSesame/smack_sl/src\startup_smack.c **** 
 175:Z:/Documents/GitHub/OpenSesame/smack_sl/src\startup_smack.c **** /*----------------------------------------------------------------------------
 176:Z:/Documents/GitHub/OpenSesame/smack_sl/src\startup_smack.c ****   Default Handler for Exceptions / Interrupts
 177:Z:/Documents/GitHub/OpenSesame/smack_sl/src\startup_smack.c ****  *----------------------------------------------------------------------------*/
 178:Z:/Documents/GitHub/OpenSesame/smack_sl/src\startup_smack.c **** void Default_Handler(void)
 179:Z:/Documents/GitHub/OpenSesame/smack_sl/src\startup_smack.c **** {
  27              	 .loc 1 179 1 view-0
  28              	 .cfi_startproc
  29              	 
  30              	 
  31              	 
  32              	 
  33              	.L2:
 180:Z:/Documents/GitHub/OpenSesame/smack_sl/src\startup_smack.c ****     /*lint -e(716) while(1) */
 181:Z:/Documents/GitHub/OpenSesame/smack_sl/src\startup_smack.c ****     while (1)
  34              	 .loc 1 181 5 discriminator 1 view .LVU1
 182:Z:/Documents/GitHub/OpenSesame/smack_sl/src\startup_smack.c ****     {
 183:Z:/Documents/GitHub/OpenSesame/smack_sl/src\startup_smack.c ****         ;
  35              	 .loc 1 183 9 discriminator 1 view .LVU2
 181:Z:/Documents/GitHub/OpenSesame/smack_sl/src\startup_smack.c ****     {
  36              	 .loc 1 181 11 discriminator 1 view .LVU3
  37 0000 FEE7     	 b .L2
  38              	 .cfi_endproc
  39              	.LFE44:
  41              	 .weak Unused14_Handler
  42              	 .thumb_set Unused14_Handler,Default_Handler
  43              	 .weak Unused13_Handler
  44              	 .thumb_set Unused13_Handler,Default_Handler
  45              	 .weak Unused12_Handler
  46              	 .thumb_set Unused12_Handler,Default_Handler
  47              	 .weak Unused11_Handler
  48              	 .thumb_set Unused11_Handler,Default_Handler
  49              	 .weak Unused10_Handler
  50              	 .thumb_set Unused10_Handler,Default_Handler
  51              	 .weak Unused9_Handler
  52              	 .thumb_set Unused9_Handler,Default_Handler
  53              	 .weak Unused8_Handler
  54              	 .thumb_set Unused8_Handler,Default_Handler
  55              	 .weak Unused7_Handler
  56              	 .thumb_set Unused7_Handler,Default_Handler
  57              	 .weak Unused6_Handler
  58              	 .thumb_set Unused6_Handler,Default_Handler
  59              	 .weak Unused5_Handler
  60              	 .thumb_set Unused5_Handler,Default_Handler
  61              	 .weak Unused4_Handler
  62              	 .thumb_set Unused4_Handler,Default_Handler
  63              	 .weak Unused3_Handler
  64              	 .thumb_set Unused3_Handler,Default_Handler
  65              	 .weak Unused2_Handler
  66              	 .thumb_set Unused2_Handler,Default_Handler
  67              	 .weak Unused1_Handler
  68              	 .thumb_set Unused1_Handler,Default_Handler
  69              	 .weak HW_nvm_Handler
  70              	 .thumb_set HW_nvm_Handler,Default_Handler
  71              	 .weak HW_field_off_Handler
  72              	 .thumb_set HW_field_off_Handler,Default_Handler
  73              	 .weak WDT_Handler
  74              	 .thumb_set WDT_Handler,Default_Handler
  75              	 .weak HPrio_Matrix5_Handler
  76              	 .thumb_set HPrio_Matrix5_Handler,Default_Handler
  77              	 .weak HPrio_Matrix4_Handler
  78              	 .thumb_set HPrio_Matrix4_Handler,Default_Handler
  79              	 .weak HPrio_Matrix3_Handler
  80              	 .thumb_set HPrio_Matrix3_Handler,Default_Handler
  81              	 .weak HPrio_Matrix2_Handler
  82              	 .thumb_set HPrio_Matrix2_Handler,Default_Handler
  83              	 .weak HPrio_Matrix1_Handler
  84              	 .thumb_set HPrio_Matrix1_Handler,Default_Handler
  85              	 .weak HPrio_Matrix0_Handler
  86              	 .thumb_set HPrio_Matrix0_Handler,Default_Handler
  87              	 .weak Event_Bus8_Handler
  88              	 .thumb_set Event_Bus8_Handler,Default_Handler
  89              	 .weak Event_Bus7_Handler
  90              	 .thumb_set Event_Bus7_Handler,Default_Handler
  91              	 .weak Event_Bus6_Handler
  92              	 .thumb_set Event_Bus6_Handler,Default_Handler
  93              	 .weak Event_Bus5_Handler
  94              	 .thumb_set Event_Bus5_Handler,Default_Handler
  95              	 .weak Event_Bus4_Handler
  96              	 .thumb_set Event_Bus4_Handler,Default_Handler
  97              	 .weak Event_Bus3_Handler
  98              	 .thumb_set Event_Bus3_Handler,Default_Handler
  99              	 .weak Event_Bus2_Handler
 100              	 .thumb_set Event_Bus2_Handler,Default_Handler
 101              	 .weak Event_Bus1_Handler
 102              	 .thumb_set Event_Bus1_Handler,Default_Handler
 103              	 .weak Cl_uart_Handler
 104              	 .thumb_set Cl_uart_Handler,Default_Handler
 105              	 .weak SysTick_Handler
 106              	 .thumb_set SysTick_Handler,Default_Handler
 107              	 .weak PendSV_Handler
 108              	 .thumb_set PendSV_Handler,Default_Handler
 109              	 .weak SVC_Handler
 110              	 .thumb_set SVC_Handler,Default_Handler
 111              	 .weak HardFault_Handler
 112              	 .thumb_set HardFault_Handler,Default_Handler
 113              	 .weak NMI_Handler
 114              	 .thumb_set NMI_Handler,Default_Handler
 115              	 .section .text.NVM_Reset_Handler,"ax",%progbits
 116              	 .align 1
 117              	 .global NVM_Reset_Handler
 118              	 .syntax unified
 119              	 .code 16
 120              	 .thumb_func
 121              	 .fpu softvfp
 123              	NVM_Reset_Handler:
 124              	.LFB43:
 171:Z:/Documents/GitHub/OpenSesame/smack_sl/src\startup_smack.c ****     __NVM_PROGRAM_START();                    /* Enter NVM PreMain (C library entry point) */
 125              	 .loc 1 171 1 view-0
 126              	 .cfi_startproc
 127              	 
 128              	 
 129              	 
 172:Z:/Documents/GitHub/OpenSesame/smack_sl/src\startup_smack.c **** }
 130              	 .loc 1 172 5 view .LVU5
 131              	.LBB8:
 132              	.LBI8:
 133              	 .file 2 "Z:/Documents/GitHub/OpenSesame/smack_rom/libs/CMSIS/inc/cmsis_gcc.h"
   1:Z:/Documents/GitHub/OpenSesame/smack_rom/libs/CMSIS/inc\cmsis_gcc.h **** /* ============================================================================
   2:Z:/Documents/GitHub/OpenSesame/smack_rom/libs/CMSIS/inc\cmsis_gcc.h **** ** Copyright (c) 2021 Infineon Technologies AG
   3:Z:/Documents/GitHub/OpenSesame/smack_rom/libs/CMSIS/inc\cmsis_gcc.h **** **               All rights reserved.
   4:Z:/Documents/GitHub/OpenSesame/smack_rom/libs/CMSIS/inc\cmsis_gcc.h **** **               www.infineon.com
   5:Z:/Documents/GitHub/OpenSesame/smack_rom/libs/CMSIS/inc\cmsis_gcc.h **** ** ============================================================================
   6:Z:/Documents/GitHub/OpenSesame/smack_rom/libs/CMSIS/inc\cmsis_gcc.h **** *
   7:Z:/Documents/GitHub/OpenSesame/smack_rom/libs/CMSIS/inc\cmsis_gcc.h **** */
   8:Z:/Documents/GitHub/OpenSesame/smack_rom/libs/CMSIS/inc\cmsis_gcc.h **** 
   9:Z:/Documents/GitHub/OpenSesame/smack_rom/libs/CMSIS/inc\cmsis_gcc.h **** /**************************************************************************//**
  10:Z:/Documents/GitHub/OpenSesame/smack_rom/libs/CMSIS/inc\cmsis_gcc.h ****  * @file     cmsis_gcc.h
  11:Z:/Documents/GitHub/OpenSesame/smack_rom/libs/CMSIS/inc\cmsis_gcc.h ****  * @brief    CMSIS compiler GCC header file
  12:Z:/Documents/GitHub/OpenSesame/smack_rom/libs/CMSIS/inc\cmsis_gcc.h ****  * @version  V5.2.0
  13:Z:/Documents/GitHub/OpenSesame/smack_rom/libs/CMSIS/inc\cmsis_gcc.h ****  * @date     08. May 2019
  14:Z:/Documents/GitHub/OpenSesame/smack_rom/libs/CMSIS/inc\cmsis_gcc.h ****  ******************************************************************************/
  15:Z:/Documents/GitHub/OpenSesame/smack_rom/libs/CMSIS/inc\cmsis_gcc.h **** /*
  16:Z:/Documents/GitHub/OpenSesame/smack_rom/libs/CMSIS/inc\cmsis_gcc.h ****  * Copyright (c) 2009-2019 Arm Limited. All rights reserved.
  17:Z:/Documents/GitHub/OpenSesame/smack_rom/libs/CMSIS/inc\cmsis_gcc.h ****  *
  18:Z:/Documents/GitHub/OpenSesame/smack_rom/libs/CMSIS/inc\cmsis_gcc.h ****  * SPDX-License-Identifier: Apache-2.0
  19:Z:/Documents/GitHub/OpenSesame/smack_rom/libs/CMSIS/inc\cmsis_gcc.h ****  *
  20:Z:/Documents/GitHub/OpenSesame/smack_rom/libs/CMSIS/inc\cmsis_gcc.h ****  * Licensed under the Apache License, Version 2.0 (the License); you may
  21:Z:/Documents/GitHub/OpenSesame/smack_rom/libs/CMSIS/inc\cmsis_gcc.h ****  * not use this file except in compliance with the License.
  22:Z:/Documents/GitHub/OpenSesame/smack_rom/libs/CMSIS/inc\cmsis_gcc.h ****  * You may obtain a copy of the License at
  23:Z:/Documents/GitHub/OpenSesame/smack_rom/libs/CMSIS/inc\cmsis_gcc.h ****  *
  24:Z:/Documents/GitHub/OpenSesame/smack_rom/libs/CMSIS/inc\cmsis_gcc.h ****  * www.apache.org/licenses/LICENSE-2.0
  25:Z:/Documents/GitHub/OpenSesame/smack_rom/libs/CMSIS/inc\cmsis_gcc.h ****  *
  26:Z:/Documents/GitHub/OpenSesame/smack_rom/libs/CMSIS/inc\cmsis_gcc.h ****  * Unless required by applicable law or agreed to in writing, software
  27:Z:/Documents/GitHub/OpenSesame/smack_rom/libs/CMSIS/inc\cmsis_gcc.h ****  * distributed under the License is distributed on an AS IS BASIS, WITHOUT
  28:Z:/Documents/GitHub/OpenSesame/smack_rom/libs/CMSIS/inc\cmsis_gcc.h ****  * WARRANTIES OR CONDITIONS OF ANY KIND, either express or implied.
  29:Z:/Documents/GitHub/OpenSesame/smack_rom/libs/CMSIS/inc\cmsis_gcc.h ****  * See the License for the specific language governing permissions and
  30:Z:/Documents/GitHub/OpenSesame/smack_rom/libs/CMSIS/inc\cmsis_gcc.h ****  * limitations under the License.
  31:Z:/Documents/GitHub/OpenSesame/smack_rom/libs/CMSIS/inc\cmsis_gcc.h ****  */
  32:Z:/Documents/GitHub/OpenSesame/smack_rom/libs/CMSIS/inc\cmsis_gcc.h **** 
  33:Z:/Documents/GitHub/OpenSesame/smack_rom/libs/CMSIS/inc\cmsis_gcc.h **** #ifndef __CMSIS_GCC_H
  34:Z:/Documents/GitHub/OpenSesame/smack_rom/libs/CMSIS/inc\cmsis_gcc.h **** #define __CMSIS_GCC_H
  35:Z:/Documents/GitHub/OpenSesame/smack_rom/libs/CMSIS/inc\cmsis_gcc.h **** 
  36:Z:/Documents/GitHub/OpenSesame/smack_rom/libs/CMSIS/inc\cmsis_gcc.h **** /* ignore some GCC warnings */
  37:Z:/Documents/GitHub/OpenSesame/smack_rom/libs/CMSIS/inc\cmsis_gcc.h **** #pragma GCC diagnostic push
  38:Z:/Documents/GitHub/OpenSesame/smack_rom/libs/CMSIS/inc\cmsis_gcc.h **** #pragma GCC diagnostic ignored "-Wsign-conversion"
  39:Z:/Documents/GitHub/OpenSesame/smack_rom/libs/CMSIS/inc\cmsis_gcc.h **** #pragma GCC diagnostic ignored "-Wconversion"
  40:Z:/Documents/GitHub/OpenSesame/smack_rom/libs/CMSIS/inc\cmsis_gcc.h **** #pragma GCC diagnostic ignored "-Wunused-parameter"
  41:Z:/Documents/GitHub/OpenSesame/smack_rom/libs/CMSIS/inc\cmsis_gcc.h **** 
  42:Z:/Documents/GitHub/OpenSesame/smack_rom/libs/CMSIS/inc\cmsis_gcc.h **** /* Fallback for __has_builtin */
  43:Z:/Documents/GitHub/OpenSesame/smack_rom/libs/CMSIS/inc\cmsis_gcc.h **** #ifndef __has_builtin
  44:Z:/Documents/GitHub/OpenSesame/smack_rom/libs/CMSIS/inc\cmsis_gcc.h ****   #define __has_builtin(x) (0)
  45:Z:/Documents/GitHub/OpenSesame/smack_rom/libs/CMSIS/inc\cmsis_gcc.h **** #endif
  46:Z:/Documents/GitHub/OpenSesame/smack_rom/libs/CMSIS/inc\cmsis_gcc.h **** 
  47:Z:/Documents/GitHub/OpenSesame/smack_rom/libs/CMSIS/inc\cmsis_gcc.h **** /* CMSIS compiler specific defines */
  48:Z:/Documents/GitHub/OpenSesame/smack_rom/libs/CMSIS/inc\cmsis_gcc.h **** #ifndef   __ASM
  49:Z:/Documents/GitHub/OpenSesame/smack_rom/libs/CMSIS/inc\cmsis_gcc.h ****   #define __ASM                                  __asm
  50:Z:/Documents/GitHub/OpenSesame/smack_rom/libs/CMSIS/inc\cmsis_gcc.h **** #endif
  51:Z:/Documents/GitHub/OpenSesame/smack_rom/libs/CMSIS/inc\cmsis_gcc.h **** #ifndef   __INLINE
  52:Z:/Documents/GitHub/OpenSesame/smack_rom/libs/CMSIS/inc\cmsis_gcc.h ****   #define __INLINE                               inline
  53:Z:/Documents/GitHub/OpenSesame/smack_rom/libs/CMSIS/inc\cmsis_gcc.h **** #endif
  54:Z:/Documents/GitHub/OpenSesame/smack_rom/libs/CMSIS/inc\cmsis_gcc.h **** #ifndef   __STATIC_INLINE
  55:Z:/Documents/GitHub/OpenSesame/smack_rom/libs/CMSIS/inc\cmsis_gcc.h ****   #define __STATIC_INLINE                        static inline
  56:Z:/Documents/GitHub/OpenSesame/smack_rom/libs/CMSIS/inc\cmsis_gcc.h **** #endif
  57:Z:/Documents/GitHub/OpenSesame/smack_rom/libs/CMSIS/inc\cmsis_gcc.h **** #ifndef   __STATIC_FORCEINLINE                 
  58:Z:/Documents/GitHub/OpenSesame/smack_rom/libs/CMSIS/inc\cmsis_gcc.h ****   #define __STATIC_FORCEINLINE                   __attribute__((always_inline)) static inline
  59:Z:/Documents/GitHub/OpenSesame/smack_rom/libs/CMSIS/inc\cmsis_gcc.h **** #endif                                           
  60:Z:/Documents/GitHub/OpenSesame/smack_rom/libs/CMSIS/inc\cmsis_gcc.h **** #ifndef   __NO_RETURN
  61:Z:/Documents/GitHub/OpenSesame/smack_rom/libs/CMSIS/inc\cmsis_gcc.h ****   #define __NO_RETURN                            __attribute__((__noreturn__))
  62:Z:/Documents/GitHub/OpenSesame/smack_rom/libs/CMSIS/inc\cmsis_gcc.h **** #endif
  63:Z:/Documents/GitHub/OpenSesame/smack_rom/libs/CMSIS/inc\cmsis_gcc.h **** #ifndef   __USED
  64:Z:/Documents/GitHub/OpenSesame/smack_rom/libs/CMSIS/inc\cmsis_gcc.h ****   #define __USED                                 __attribute__((used))
  65:Z:/Documents/GitHub/OpenSesame/smack_rom/libs/CMSIS/inc\cmsis_gcc.h **** #endif
  66:Z:/Documents/GitHub/OpenSesame/smack_rom/libs/CMSIS/inc\cmsis_gcc.h **** #ifndef   __WEAK
  67:Z:/Documents/GitHub/OpenSesame/smack_rom/libs/CMSIS/inc\cmsis_gcc.h ****   #define __WEAK                                 __attribute__((weak))
  68:Z:/Documents/GitHub/OpenSesame/smack_rom/libs/CMSIS/inc\cmsis_gcc.h **** #endif
  69:Z:/Documents/GitHub/OpenSesame/smack_rom/libs/CMSIS/inc\cmsis_gcc.h **** #ifndef   __PACKED
  70:Z:/Documents/GitHub/OpenSesame/smack_rom/libs/CMSIS/inc\cmsis_gcc.h ****   #define __PACKED                               __attribute__((packed, aligned(1)))
  71:Z:/Documents/GitHub/OpenSesame/smack_rom/libs/CMSIS/inc\cmsis_gcc.h **** #endif
  72:Z:/Documents/GitHub/OpenSesame/smack_rom/libs/CMSIS/inc\cmsis_gcc.h **** #ifndef   __PACKED_STRUCT
  73:Z:/Documents/GitHub/OpenSesame/smack_rom/libs/CMSIS/inc\cmsis_gcc.h ****   #define __PACKED_STRUCT                        struct __attribute__((packed, aligned(1)))
  74:Z:/Documents/GitHub/OpenSesame/smack_rom/libs/CMSIS/inc\cmsis_gcc.h **** #endif
  75:Z:/Documents/GitHub/OpenSesame/smack_rom/libs/CMSIS/inc\cmsis_gcc.h **** #ifndef   __PACKED_UNION
  76:Z:/Documents/GitHub/OpenSesame/smack_rom/libs/CMSIS/inc\cmsis_gcc.h ****   #define __PACKED_UNION                         union __attribute__((packed, aligned(1)))
  77:Z:/Documents/GitHub/OpenSesame/smack_rom/libs/CMSIS/inc\cmsis_gcc.h **** #endif
  78:Z:/Documents/GitHub/OpenSesame/smack_rom/libs/CMSIS/inc\cmsis_gcc.h **** #ifndef   __UNALIGNED_UINT32        /* deprecated */
  79:Z:/Documents/GitHub/OpenSesame/smack_rom/libs/CMSIS/inc\cmsis_gcc.h ****   #pragma GCC diagnostic push
  80:Z:/Documents/GitHub/OpenSesame/smack_rom/libs/CMSIS/inc\cmsis_gcc.h ****   #pragma GCC diagnostic ignored "-Wpacked"
  81:Z:/Documents/GitHub/OpenSesame/smack_rom/libs/CMSIS/inc\cmsis_gcc.h ****   #pragma GCC diagnostic ignored "-Wattributes"
  82:Z:/Documents/GitHub/OpenSesame/smack_rom/libs/CMSIS/inc\cmsis_gcc.h ****   struct __attribute__((packed)) T_UINT32 { uint32_t v; };
  83:Z:/Documents/GitHub/OpenSesame/smack_rom/libs/CMSIS/inc\cmsis_gcc.h ****   #pragma GCC diagnostic pop
  84:Z:/Documents/GitHub/OpenSesame/smack_rom/libs/CMSIS/inc\cmsis_gcc.h ****   #define __UNALIGNED_UINT32(x)                  (((struct T_UINT32 *)(x))->v)
  85:Z:/Documents/GitHub/OpenSesame/smack_rom/libs/CMSIS/inc\cmsis_gcc.h **** #endif
  86:Z:/Documents/GitHub/OpenSesame/smack_rom/libs/CMSIS/inc\cmsis_gcc.h **** #ifndef   __UNALIGNED_UINT16_WRITE
  87:Z:/Documents/GitHub/OpenSesame/smack_rom/libs/CMSIS/inc\cmsis_gcc.h ****   #pragma GCC diagnostic push
  88:Z:/Documents/GitHub/OpenSesame/smack_rom/libs/CMSIS/inc\cmsis_gcc.h ****   #pragma GCC diagnostic ignored "-Wpacked"
  89:Z:/Documents/GitHub/OpenSesame/smack_rom/libs/CMSIS/inc\cmsis_gcc.h ****   #pragma GCC diagnostic ignored "-Wattributes"
  90:Z:/Documents/GitHub/OpenSesame/smack_rom/libs/CMSIS/inc\cmsis_gcc.h ****   __PACKED_STRUCT T_UINT16_WRITE { uint16_t v; };
  91:Z:/Documents/GitHub/OpenSesame/smack_rom/libs/CMSIS/inc\cmsis_gcc.h ****   #pragma GCC diagnostic pop
  92:Z:/Documents/GitHub/OpenSesame/smack_rom/libs/CMSIS/inc\cmsis_gcc.h ****   #define __UNALIGNED_UINT16_WRITE(addr, val)    (void)((((struct T_UINT16_WRITE *)(void *)(addr))-
  93:Z:/Documents/GitHub/OpenSesame/smack_rom/libs/CMSIS/inc\cmsis_gcc.h **** #endif
  94:Z:/Documents/GitHub/OpenSesame/smack_rom/libs/CMSIS/inc\cmsis_gcc.h **** #ifndef   __UNALIGNED_UINT16_READ
  95:Z:/Documents/GitHub/OpenSesame/smack_rom/libs/CMSIS/inc\cmsis_gcc.h ****   #pragma GCC diagnostic push
  96:Z:/Documents/GitHub/OpenSesame/smack_rom/libs/CMSIS/inc\cmsis_gcc.h ****   #pragma GCC diagnostic ignored "-Wpacked"
  97:Z:/Documents/GitHub/OpenSesame/smack_rom/libs/CMSIS/inc\cmsis_gcc.h ****   #pragma GCC diagnostic ignored "-Wattributes"
  98:Z:/Documents/GitHub/OpenSesame/smack_rom/libs/CMSIS/inc\cmsis_gcc.h ****   __PACKED_STRUCT T_UINT16_READ { uint16_t v; };
  99:Z:/Documents/GitHub/OpenSesame/smack_rom/libs/CMSIS/inc\cmsis_gcc.h ****   #pragma GCC diagnostic pop
 100:Z:/Documents/GitHub/OpenSesame/smack_rom/libs/CMSIS/inc\cmsis_gcc.h ****   #define __UNALIGNED_UINT16_READ(addr)          (((const struct T_UINT16_READ *)(const void *)(add
 101:Z:/Documents/GitHub/OpenSesame/smack_rom/libs/CMSIS/inc\cmsis_gcc.h **** #endif
 102:Z:/Documents/GitHub/OpenSesame/smack_rom/libs/CMSIS/inc\cmsis_gcc.h **** #ifndef   __UNALIGNED_UINT32_WRITE
 103:Z:/Documents/GitHub/OpenSesame/smack_rom/libs/CMSIS/inc\cmsis_gcc.h ****   #pragma GCC diagnostic push
 104:Z:/Documents/GitHub/OpenSesame/smack_rom/libs/CMSIS/inc\cmsis_gcc.h ****   #pragma GCC diagnostic ignored "-Wpacked"
 105:Z:/Documents/GitHub/OpenSesame/smack_rom/libs/CMSIS/inc\cmsis_gcc.h ****   #pragma GCC diagnostic ignored "-Wattributes"
 106:Z:/Documents/GitHub/OpenSesame/smack_rom/libs/CMSIS/inc\cmsis_gcc.h ****   __PACKED_STRUCT T_UINT32_WRITE { uint32_t v; };
 107:Z:/Documents/GitHub/OpenSesame/smack_rom/libs/CMSIS/inc\cmsis_gcc.h ****   #pragma GCC diagnostic pop
 108:Z:/Documents/GitHub/OpenSesame/smack_rom/libs/CMSIS/inc\cmsis_gcc.h ****   #define __UNALIGNED_UINT32_WRITE(addr, val)    (void)((((struct T_UINT32_WRITE *)(void *)(addr))-
 109:Z:/Documents/GitHub/OpenSesame/smack_rom/libs/CMSIS/inc\cmsis_gcc.h **** #endif
 110:Z:/Documents/GitHub/OpenSesame/smack_rom/libs/CMSIS/inc\cmsis_gcc.h **** #ifndef   __UNALIGNED_UINT32_READ
 111:Z:/Documents/GitHub/OpenSesame/smack_rom/libs/CMSIS/inc\cmsis_gcc.h ****   #pragma GCC diagnostic push
 112:Z:/Documents/GitHub/OpenSesame/smack_rom/libs/CMSIS/inc\cmsis_gcc.h ****   #pragma GCC diagnostic ignored "-Wpacked"
 113:Z:/Documents/GitHub/OpenSesame/smack_rom/libs/CMSIS/inc\cmsis_gcc.h ****   #pragma GCC diagnostic ignored "-Wattributes"
 114:Z:/Documents/GitHub/OpenSesame/smack_rom/libs/CMSIS/inc\cmsis_gcc.h ****   __PACKED_STRUCT T_UINT32_READ { uint32_t v; };
 115:Z:/Documents/GitHub/OpenSesame/smack_rom/libs/CMSIS/inc\cmsis_gcc.h ****   #pragma GCC diagnostic pop
 116:Z:/Documents/GitHub/OpenSesame/smack_rom/libs/CMSIS/inc\cmsis_gcc.h ****   #define __UNALIGNED_UINT32_READ(addr)          (((const struct T_UINT32_READ *)(const void *)(add
 117:Z:/Documents/GitHub/OpenSesame/smack_rom/libs/CMSIS/inc\cmsis_gcc.h **** #endif
 118:Z:/Documents/GitHub/OpenSesame/smack_rom/libs/CMSIS/inc\cmsis_gcc.h **** #ifndef   __ALIGNED
 119:Z:/Documents/GitHub/OpenSesame/smack_rom/libs/CMSIS/inc\cmsis_gcc.h ****   #define __ALIGNED(x)                           __attribute__((aligned(x)))
 120:Z:/Documents/GitHub/OpenSesame/smack_rom/libs/CMSIS/inc\cmsis_gcc.h **** #endif
 121:Z:/Documents/GitHub/OpenSesame/smack_rom/libs/CMSIS/inc\cmsis_gcc.h **** #ifndef   __RESTRICT
 122:Z:/Documents/GitHub/OpenSesame/smack_rom/libs/CMSIS/inc\cmsis_gcc.h ****   #define __RESTRICT                             __restrict
 123:Z:/Documents/GitHub/OpenSesame/smack_rom/libs/CMSIS/inc\cmsis_gcc.h **** #endif
 124:Z:/Documents/GitHub/OpenSesame/smack_rom/libs/CMSIS/inc\cmsis_gcc.h **** #ifndef   __COMPILER_BARRIER
 125:Z:/Documents/GitHub/OpenSesame/smack_rom/libs/CMSIS/inc\cmsis_gcc.h ****   #define __COMPILER_BARRIER()                   __ASM volatile("":::"memory")
 126:Z:/Documents/GitHub/OpenSesame/smack_rom/libs/CMSIS/inc\cmsis_gcc.h **** #endif
 127:Z:/Documents/GitHub/OpenSesame/smack_rom/libs/CMSIS/inc\cmsis_gcc.h **** 
 128:Z:/Documents/GitHub/OpenSesame/smack_rom/libs/CMSIS/inc\cmsis_gcc.h **** /* #########################  Startup and Lowlevel Init  ######################## */
 129:Z:/Documents/GitHub/OpenSesame/smack_rom/libs/CMSIS/inc\cmsis_gcc.h **** 
 130:Z:/Documents/GitHub/OpenSesame/smack_rom/libs/CMSIS/inc\cmsis_gcc.h **** #ifndef __PROGRAM_START
 131:Z:/Documents/GitHub/OpenSesame/smack_rom/libs/CMSIS/inc\cmsis_gcc.h **** 
 132:Z:/Documents/GitHub/OpenSesame/smack_rom/libs/CMSIS/inc\cmsis_gcc.h **** /**@brief   Initializes data and bss sections.
 133:Z:/Documents/GitHub/OpenSesame/smack_rom/libs/CMSIS/inc\cmsis_gcc.h ****  * @details This default implementations initialized all data and additional bss
 134:Z:/Documents/GitHub/OpenSesame/smack_rom/libs/CMSIS/inc\cmsis_gcc.h ****  *          sections relying on .copy.table and .zero.table specified properly
 135:Z:/Documents/GitHub/OpenSesame/smack_rom/libs/CMSIS/inc\cmsis_gcc.h ****  *          in the used linker script.
 136:Z:/Documents/GitHub/OpenSesame/smack_rom/libs/CMSIS/inc\cmsis_gcc.h ****  */
 137:Z:/Documents/GitHub/OpenSesame/smack_rom/libs/CMSIS/inc\cmsis_gcc.h **** __STATIC_FORCEINLINE __NO_RETURN void __cmsis_start(void)
 138:Z:/Documents/GitHub/OpenSesame/smack_rom/libs/CMSIS/inc\cmsis_gcc.h **** {
 139:Z:/Documents/GitHub/OpenSesame/smack_rom/libs/CMSIS/inc\cmsis_gcc.h ****   extern void _start(void) __NO_RETURN;
 140:Z:/Documents/GitHub/OpenSesame/smack_rom/libs/CMSIS/inc\cmsis_gcc.h ****   
 141:Z:/Documents/GitHub/OpenSesame/smack_rom/libs/CMSIS/inc\cmsis_gcc.h ****    typedef struct {
 142:Z:/Documents/GitHub/OpenSesame/smack_rom/libs/CMSIS/inc\cmsis_gcc.h ****     uint32_t const* src;
 143:Z:/Documents/GitHub/OpenSesame/smack_rom/libs/CMSIS/inc\cmsis_gcc.h ****     uint32_t* dest;
 144:Z:/Documents/GitHub/OpenSesame/smack_rom/libs/CMSIS/inc\cmsis_gcc.h ****     uint32_t  wlen;
 145:Z:/Documents/GitHub/OpenSesame/smack_rom/libs/CMSIS/inc\cmsis_gcc.h ****   } __copy_table_t;
 146:Z:/Documents/GitHub/OpenSesame/smack_rom/libs/CMSIS/inc\cmsis_gcc.h ****   
 147:Z:/Documents/GitHub/OpenSesame/smack_rom/libs/CMSIS/inc\cmsis_gcc.h ****   typedef struct {
 148:Z:/Documents/GitHub/OpenSesame/smack_rom/libs/CMSIS/inc\cmsis_gcc.h ****     uint32_t* dest;
 149:Z:/Documents/GitHub/OpenSesame/smack_rom/libs/CMSIS/inc\cmsis_gcc.h ****     uint32_t  wlen;
 150:Z:/Documents/GitHub/OpenSesame/smack_rom/libs/CMSIS/inc\cmsis_gcc.h ****   } __zero_table_t;
 151:Z:/Documents/GitHub/OpenSesame/smack_rom/libs/CMSIS/inc\cmsis_gcc.h ****   
 152:Z:/Documents/GitHub/OpenSesame/smack_rom/libs/CMSIS/inc\cmsis_gcc.h ****   extern const __copy_table_t __copy_table_start__;
 153:Z:/Documents/GitHub/OpenSesame/smack_rom/libs/CMSIS/inc\cmsis_gcc.h ****   extern const __copy_table_t __copy_table_end__;
 154:Z:/Documents/GitHub/OpenSesame/smack_rom/libs/CMSIS/inc\cmsis_gcc.h ****   extern const __zero_table_t __zero_table_start__;
 155:Z:/Documents/GitHub/OpenSesame/smack_rom/libs/CMSIS/inc\cmsis_gcc.h ****   extern const __zero_table_t __zero_table_end__;
 156:Z:/Documents/GitHub/OpenSesame/smack_rom/libs/CMSIS/inc\cmsis_gcc.h **** 
 157:Z:/Documents/GitHub/OpenSesame/smack_rom/libs/CMSIS/inc\cmsis_gcc.h ****   for (__copy_table_t const* pTable = &__copy_table_start__; pTable < &__copy_table_end__; ++pTable
 158:Z:/Documents/GitHub/OpenSesame/smack_rom/libs/CMSIS/inc\cmsis_gcc.h ****     for(uint32_t i=0u; i<pTable->wlen; ++i) {
 159:Z:/Documents/GitHub/OpenSesame/smack_rom/libs/CMSIS/inc\cmsis_gcc.h ****       pTable->dest[i] = pTable->src[i];
 160:Z:/Documents/GitHub/OpenSesame/smack_rom/libs/CMSIS/inc\cmsis_gcc.h ****     }
 161:Z:/Documents/GitHub/OpenSesame/smack_rom/libs/CMSIS/inc\cmsis_gcc.h ****   }
 162:Z:/Documents/GitHub/OpenSesame/smack_rom/libs/CMSIS/inc\cmsis_gcc.h ****  
 163:Z:/Documents/GitHub/OpenSesame/smack_rom/libs/CMSIS/inc\cmsis_gcc.h ****   for (__zero_table_t const* pTable = &__zero_table_start__; pTable < &__zero_table_end__; ++pTable
 164:Z:/Documents/GitHub/OpenSesame/smack_rom/libs/CMSIS/inc\cmsis_gcc.h ****     for(uint32_t i=0u; i<pTable->wlen; ++i) {
 165:Z:/Documents/GitHub/OpenSesame/smack_rom/libs/CMSIS/inc\cmsis_gcc.h ****       pTable->dest[i] = 0u;
 166:Z:/Documents/GitHub/OpenSesame/smack_rom/libs/CMSIS/inc\cmsis_gcc.h ****     }
 167:Z:/Documents/GitHub/OpenSesame/smack_rom/libs/CMSIS/inc\cmsis_gcc.h ****   }
 168:Z:/Documents/GitHub/OpenSesame/smack_rom/libs/CMSIS/inc\cmsis_gcc.h ****   
 169:Z:/Documents/GitHub/OpenSesame/smack_rom/libs/CMSIS/inc\cmsis_gcc.h ****   _start();
 170:Z:/Documents/GitHub/OpenSesame/smack_rom/libs/CMSIS/inc\cmsis_gcc.h **** }
 171:Z:/Documents/GitHub/OpenSesame/smack_rom/libs/CMSIS/inc\cmsis_gcc.h ****   
 172:Z:/Documents/GitHub/OpenSesame/smack_rom/libs/CMSIS/inc\cmsis_gcc.h **** #define __PROGRAM_START           __cmsis_start
 173:Z:/Documents/GitHub/OpenSesame/smack_rom/libs/CMSIS/inc\cmsis_gcc.h **** #endif
 174:Z:/Documents/GitHub/OpenSesame/smack_rom/libs/CMSIS/inc\cmsis_gcc.h **** 
 175:Z:/Documents/GitHub/OpenSesame/smack_rom/libs/CMSIS/inc\cmsis_gcc.h **** /* #########################  Startup and Lowlevel Init  ######################## */
 176:Z:/Documents/GitHub/OpenSesame/smack_rom/libs/CMSIS/inc\cmsis_gcc.h **** 
 177:Z:/Documents/GitHub/OpenSesame/smack_rom/libs/CMSIS/inc\cmsis_gcc.h **** #ifndef __NVM_PROGRAM_START
 178:Z:/Documents/GitHub/OpenSesame/smack_rom/libs/CMSIS/inc\cmsis_gcc.h **** 
 179:Z:/Documents/GitHub/OpenSesame/smack_rom/libs/CMSIS/inc\cmsis_gcc.h **** /**
 180:Z:/Documents/GitHub/OpenSesame/smack_rom/libs/CMSIS/inc\cmsis_gcc.h ****   \brief   Initializes data and bss sections
 181:Z:/Documents/GitHub/OpenSesame/smack_rom/libs/CMSIS/inc\cmsis_gcc.h ****   \details This default implementations initialized all data and additional bss
 182:Z:/Documents/GitHub/OpenSesame/smack_rom/libs/CMSIS/inc\cmsis_gcc.h ****            sections relying on .copy.table and .zero.table specified properly
 183:Z:/Documents/GitHub/OpenSesame/smack_rom/libs/CMSIS/inc\cmsis_gcc.h ****            in the used linker script.
 184:Z:/Documents/GitHub/OpenSesame/smack_rom/libs/CMSIS/inc\cmsis_gcc.h **** 
 185:Z:/Documents/GitHub/OpenSesame/smack_rom/libs/CMSIS/inc\cmsis_gcc.h ****  */
 186:Z:/Documents/GitHub/OpenSesame/smack_rom/libs/CMSIS/inc\cmsis_gcc.h **** __STATIC_FORCEINLINE __NO_RETURN void __nvm_cmsis_start(void)
 134              	 .loc 2 186 39 view .LVU6
 135              	.LBB9:
 187:Z:/Documents/GitHub/OpenSesame/smack_rom/libs/CMSIS/inc\cmsis_gcc.h **** {
 188:Z:/Documents/GitHub/OpenSesame/smack_rom/libs/CMSIS/inc\cmsis_gcc.h ****   extern void _nvm_start(void) __NO_RETURN;
 136              	 .loc 2 188 3 view .LVU7
 189:Z:/Documents/GitHub/OpenSesame/smack_rom/libs/CMSIS/inc\cmsis_gcc.h **** 
 190:Z:/Documents/GitHub/OpenSesame/smack_rom/libs/CMSIS/inc\cmsis_gcc.h ****    typedef struct {
 137              	 .loc 2 190 4 view .LVU8
 191:Z:/Documents/GitHub/OpenSesame/smack_rom/libs/CMSIS/inc\cmsis_gcc.h ****     uint32_t const* src;
 192:Z:/Documents/GitHub/OpenSesame/smack_rom/libs/CMSIS/inc\cmsis_gcc.h ****     uint32_t* dest;
 193:Z:/Documents/GitHub/OpenSesame/smack_rom/libs/CMSIS/inc\cmsis_gcc.h ****     uint32_t  wlen;
 194:Z:/Documents/GitHub/OpenSesame/smack_rom/libs/CMSIS/inc\cmsis_gcc.h ****   } __copy_table_t;
 195:Z:/Documents/GitHub/OpenSesame/smack_rom/libs/CMSIS/inc\cmsis_gcc.h **** 
 196:Z:/Documents/GitHub/OpenSesame/smack_rom/libs/CMSIS/inc\cmsis_gcc.h ****   typedef struct {
 138              	 .loc 2 196 3 view .LVU9
 197:Z:/Documents/GitHub/OpenSesame/smack_rom/libs/CMSIS/inc\cmsis_gcc.h ****     uint32_t* dest;
 198:Z:/Documents/GitHub/OpenSesame/smack_rom/libs/CMSIS/inc\cmsis_gcc.h ****     uint32_t  wlen;
 199:Z:/Documents/GitHub/OpenSesame/smack_rom/libs/CMSIS/inc\cmsis_gcc.h ****   } __zero_table_t;
 200:Z:/Documents/GitHub/OpenSesame/smack_rom/libs/CMSIS/inc\cmsis_gcc.h **** 
 201:Z:/Documents/GitHub/OpenSesame/smack_rom/libs/CMSIS/inc\cmsis_gcc.h ****   extern const __copy_table_t __nvm_copy_table_start__;
 139              	 .loc 2 201 3 view .LVU10
 202:Z:/Documents/GitHub/OpenSesame/smack_rom/libs/CMSIS/inc\cmsis_gcc.h ****   extern const __copy_table_t __nvm_copy_table_end__;
 140              	 .loc 2 202 3 view .LVU11
 203:Z:/Documents/GitHub/OpenSesame/smack_rom/libs/CMSIS/inc\cmsis_gcc.h ****   extern const __zero_table_t __nvm_zero_table_start__;
 141              	 .loc 2 203 3 view .LVU12
 204:Z:/Documents/GitHub/OpenSesame/smack_rom/libs/CMSIS/inc\cmsis_gcc.h ****   extern const __zero_table_t __nvm_zero_table_end__;
 142              	 .loc 2 204 3 view .LVU13
 205:Z:/Documents/GitHub/OpenSesame/smack_rom/libs/CMSIS/inc\cmsis_gcc.h **** 
 206:Z:/Documents/GitHub/OpenSesame/smack_rom/libs/CMSIS/inc\cmsis_gcc.h ****   for (__copy_table_t const* pTable = &__nvm_copy_table_start__; pTable < &__nvm_copy_table_end__; 
 143              	 .loc 2 206 3 view .LVU14
 144              	.LBB10:
 145              	 .loc 2 206 8 view .LVU15
 146              	.LVL0:
 147              	 .loc 2 206 8 is_stmt 0 view .LVU16
 148              	.LBE10:
 149              	.LBE9:
 150              	.LBE8:
 171:Z:/Documents/GitHub/OpenSesame/smack_sl/src\startup_smack.c ****     __NVM_PROGRAM_START();                    /* Enter NVM PreMain (C library entry point) */
 151              	 .loc 1 171 1 view .LVU17
 152 0000 70B5     	 push {r4,r5,r6,lr}
 153              	.LCFI0:
 154              	 .cfi_def_cfa_offset 16
 155              	 .cfi_offset 4,-16
 156              	 .cfi_offset 5,-12
 157              	 .cfi_offset 6,-8
 158              	 .cfi_offset 14,-4
 159              	.LBB21:
 160              	.LBB20:
 161              	.LBB13:
 162              	 .loc 2 206 30 view .LVU18
 163 0002 114B     	 ldr r3,.L12
 164              	 .loc 2 206 3 view .LVU19
 165 0004 1148     	 ldr r0,.L12+4
 166              	.LVL1:
 167              	.L4:
 168              	 .loc 2 206 66 is_stmt 1 view .LVU20
 169              	 .loc 2 206 3 is_stmt 0 view .LVU21
 170 0006 8342     	 cmp r3,r0
 171 0008 11D3     	 bcc .L10
 172              	.LBE13:
 173              	.LBB14:
 174              	.LBB15:
 207:Z:/Documents/GitHub/OpenSesame/smack_rom/libs/CMSIS/inc\cmsis_gcc.h ****     for(uint32_t i=0u; i<pTable->wlen; ++i) {
 208:Z:/Documents/GitHub/OpenSesame/smack_rom/libs/CMSIS/inc\cmsis_gcc.h ****       pTable->dest[i] = pTable->src[i];
 209:Z:/Documents/GitHub/OpenSesame/smack_rom/libs/CMSIS/inc\cmsis_gcc.h ****     }
 210:Z:/Documents/GitHub/OpenSesame/smack_rom/libs/CMSIS/inc\cmsis_gcc.h ****   }
 211:Z:/Documents/GitHub/OpenSesame/smack_rom/libs/CMSIS/inc\cmsis_gcc.h **** 
 212:Z:/Documents/GitHub/OpenSesame/smack_rom/libs/CMSIS/inc\cmsis_gcc.h ****   for (__zero_table_t const* pTable = &__nvm_zero_table_start__; pTable < &__nvm_zero_table_end__; 
 213:Z:/Documents/GitHub/OpenSesame/smack_rom/libs/CMSIS/inc\cmsis_gcc.h ****     for(uint32_t i=0u; i<pTable->wlen; ++i) {
 214:Z:/Documents/GitHub/OpenSesame/smack_rom/libs/CMSIS/inc\cmsis_gcc.h ****       pTable->dest[i] = 0u;
 175              	 .loc 2 214 23 view .LVU22
 176 000a 0020     	 movs r0,#0
 177              	.LBE15:
 212:Z:/Documents/GitHub/OpenSesame/smack_rom/libs/CMSIS/inc\cmsis_gcc.h ****     for(uint32_t i=0u; i<pTable->wlen; ++i) {
 178              	 .loc 2 212 30 view .LVU23
 179 000c 104B     	 ldr r3,.L12+8
 180              	.LVL2:
 212:Z:/Documents/GitHub/OpenSesame/smack_rom/libs/CMSIS/inc\cmsis_gcc.h ****     for(uint32_t i=0u; i<pTable->wlen; ++i) {
 181              	 .loc 2 212 3 view .LVU24
 182 000e 1149     	 ldr r1,.L12+12
 183              	.L7:
 184              	.LVL3:
 212:Z:/Documents/GitHub/OpenSesame/smack_rom/libs/CMSIS/inc\cmsis_gcc.h ****     for(uint32_t i=0u; i<pTable->wlen; ++i) {
 185              	 .loc 2 212 66 is_stmt 1 view .LVU25
 212:Z:/Documents/GitHub/OpenSesame/smack_rom/libs/CMSIS/inc\cmsis_gcc.h ****     for(uint32_t i=0u; i<pTable->wlen; ++i) {
 186              	 .loc 2 212 3 is_stmt 0 view .LVU26
 187 0010 8B42     	 cmp r3,r1
 188 0012 17D3     	 bcc .L11
 189              	.LBE14:
 215:Z:/Documents/GitHub/OpenSesame/smack_rom/libs/CMSIS/inc\cmsis_gcc.h ****     }
 216:Z:/Documents/GitHub/OpenSesame/smack_rom/libs/CMSIS/inc\cmsis_gcc.h ****   }
 217:Z:/Documents/GitHub/OpenSesame/smack_rom/libs/CMSIS/inc\cmsis_gcc.h **** 
 218:Z:/Documents/GitHub/OpenSesame/smack_rom/libs/CMSIS/inc\cmsis_gcc.h ****   _nvm_start();
 190              	 .loc 2 218 3 is_stmt 1 view .LVU27
 191 0014 FFF7FEFF 	 bl _nvm_start
 192              	.LVL4:
 193              	.L5:
 194              	.LBB18:
 195              	.LBB11:
 208:Z:/Documents/GitHub/OpenSesame/smack_rom/libs/CMSIS/inc\cmsis_gcc.h ****     }
 196              	 .loc 2 208 7 view .LVU28
 208:Z:/Documents/GitHub/OpenSesame/smack_rom/libs/CMSIS/inc\cmsis_gcc.h ****     }
 197              	 .loc 2 208 36 is_stmt 0 view .LVU29
 198 0018 1C68     	 ldr r4,[r3]
 199 001a 9100     	 lsls r1,r2,#2
 200 001c 6458     	 ldr r4,[r4,r1]
 208:Z:/Documents/GitHub/OpenSesame/smack_rom/libs/CMSIS/inc\cmsis_gcc.h ****     }
 201              	 .loc 2 208 23 view .LVU30
 202 001e 5D68     	 ldr r5,[r3,#4]
 207:Z:/Documents/GitHub/OpenSesame/smack_rom/libs/CMSIS/inc\cmsis_gcc.h ****       pTable->dest[i] = pTable->src[i];
 203              	 .loc 2 207 40 view .LVU31
 204 0020 0132     	 adds r2,r2,#1
 205              	.LVL5:
 208:Z:/Documents/GitHub/OpenSesame/smack_rom/libs/CMSIS/inc\cmsis_gcc.h ****     }
 206              	 .loc 2 208 23 view .LVU32
 207 0022 6C50     	 str r4,[r5,r1]
 207:Z:/Documents/GitHub/OpenSesame/smack_rom/libs/CMSIS/inc\cmsis_gcc.h ****       pTable->dest[i] = pTable->src[i];
 208              	 .loc 2 207 40 is_stmt 1 view .LVU33
 209              	.LVL6:
 210              	.L6:
 207:Z:/Documents/GitHub/OpenSesame/smack_rom/libs/CMSIS/inc\cmsis_gcc.h ****       pTable->dest[i] = pTable->src[i];
 211              	 .loc 2 207 24 view .LVU34
 207:Z:/Documents/GitHub/OpenSesame/smack_rom/libs/CMSIS/inc\cmsis_gcc.h ****       pTable->dest[i] = pTable->src[i];
 212              	 .loc 2 207 5 is_stmt 0 view .LVU35
 213 0024 9968     	 ldr r1,[r3,#8]
 214 0026 8A42     	 cmp r2,r1
 215 0028 F6D3     	 bcc .L5
 216              	.LBE11:
 206:Z:/Documents/GitHub/OpenSesame/smack_rom/libs/CMSIS/inc\cmsis_gcc.h ****     for(uint32_t i=0u; i<pTable->wlen; ++i) {
 217              	 .loc 2 206 100 is_stmt 1 view .LVU36
 218 002a 0C33     	 adds r3,r3,#12
 219              	.LVL7:
 206:Z:/Documents/GitHub/OpenSesame/smack_rom/libs/CMSIS/inc\cmsis_gcc.h ****     for(uint32_t i=0u; i<pTable->wlen; ++i) {
 220              	 .loc 2 206 100 is_stmt 0 view .LVU37
 221 002c EBE7     	 b .L4
 222              	.LVL8:
 223              	.L10:
 224              	.LBB12:
 207:Z:/Documents/GitHub/OpenSesame/smack_rom/libs/CMSIS/inc\cmsis_gcc.h ****       pTable->dest[i] = pTable->src[i];
 225              	 .loc 2 207 18 view .LVU38
 226 002e 0022     	 movs r2,#0
 227 0030 F8E7     	 b .L6
 228              	.LVL9:
 229              	.L8:
 207:Z:/Documents/GitHub/OpenSesame/smack_rom/libs/CMSIS/inc\cmsis_gcc.h ****       pTable->dest[i] = pTable->src[i];
 230              	 .loc 2 207 18 view .LVU39
 231              	.LBE12:
 232              	.LBE18:
 233              	.LBB19:
 234              	.LBB16:
 214:Z:/Documents/GitHub/OpenSesame/smack_rom/libs/CMSIS/inc\cmsis_gcc.h ****     }
 235              	 .loc 2 214 7 is_stmt 1 view .LVU40
 214:Z:/Documents/GitHub/OpenSesame/smack_rom/libs/CMSIS/inc\cmsis_gcc.h ****     }
 236              	 .loc 2 214 23 is_stmt 0 view .LVU41
 237 0032 1D68     	 ldr r5,[r3]
 238 0034 9400     	 lsls r4,r2,#2
 239 0036 6051     	 str r0,[r4,r5]
 213:Z:/Documents/GitHub/OpenSesame/smack_rom/libs/CMSIS/inc\cmsis_gcc.h ****       pTable->dest[i] = 0u;
 240              	 .loc 2 213 40 is_stmt 1 view .LVU42
 241 0038 0132     	 adds r2,r2,#1
 242              	.LVL10:
 243              	.L9:
 213:Z:/Documents/GitHub/OpenSesame/smack_rom/libs/CMSIS/inc\cmsis_gcc.h ****       pTable->dest[i] = 0u;
 244              	 .loc 2 213 24 view .LVU43
 213:Z:/Documents/GitHub/OpenSesame/smack_rom/libs/CMSIS/inc\cmsis_gcc.h ****       pTable->dest[i] = 0u;
 245              	 .loc 2 213 5 is_stmt 0 view .LVU44
 246 003a 5C68     	 ldr r4,[r3,#4]
 247 003c A242     	 cmp r2,r4
 248 003e F8D3     	 bcc .L8
 249              	.LBE16:
 212:Z:/Documents/GitHub/OpenSesame/smack_rom/libs/CMSIS/inc\cmsis_gcc.h ****     for(uint32_t i=0u; i<pTable->wlen; ++i) {
 250              	 .loc 2 212 100 is_stmt 1 view .LVU45
 251 0040 0833     	 adds r3,r3,#8
 252              	.LVL11:
 212:Z:/Documents/GitHub/OpenSesame/smack_rom/libs/CMSIS/inc\cmsis_gcc.h ****     for(uint32_t i=0u; i<pTable->wlen; ++i) {
 253              	 .loc 2 212 100 is_stmt 0 view .LVU46
 254 0042 E5E7     	 b .L7
 255              	.LVL12:
 256              	.L11:
 257              	.LBB17:
 213:Z:/Documents/GitHub/OpenSesame/smack_rom/libs/CMSIS/inc\cmsis_gcc.h ****       pTable->dest[i] = 0u;
 258              	 .loc 2 213 18 view .LVU47
 259 0044 0022     	 movs r2,#0
 260 0046 F8E7     	 b .L9
 261              	.L13:
 262              	 .align 2
 263              	.L12:
 264 0048 00000000 	 .word __nvm_copy_table_start__
 265 004c 00000000 	 .word __nvm_copy_table_end__
 266 0050 00000000 	 .word __nvm_zero_table_start__
 267 0054 00000000 	 .word __nvm_zero_table_end__
 268              	.LBE17:
 269              	.LBE19:
 270              	.LBE20:
 271              	.LBE21:
 272              	 .cfi_endproc
 273              	.LFE43:
 275              	 .global __Vectors
 276              	 .section .vectors,"a"
 277              	 .align 2
 280              	__Vectors:
 281 0000 00000000 	 .word __StackTop
 282 0004 00000000 	 .word NVM_Reset_Handler
 283 0008 00000000 	 .word NMI_Handler
 284 000c 00000000 	 .word HardFault_Handler
 285 0010 00000000 	 .word 0
 286 0014 00000000 	 .word 0
 287 0018 00000000 	 .word 0
 288 001c 00000000 	 .word 0
 289 0020 00000000 	 .word 0
 290 0024 00000000 	 .word 0
 291 0028 00000000 	 .word 0
 292 002c 00000000 	 .word SVC_Handler
 293 0030 00000000 	 .word 0
 294 0034 00000000 	 .word 0
 295 0038 00000000 	 .word PendSV_Handler
 296 003c 00000000 	 .word SysTick_Handler
 297 0040 00000000 	 .word Cl_uart_Handler
 298 0044 00000000 	 .word Event_Bus1_Handler
 299 0048 00000000 	 .word Event_Bus2_Handler
 300 004c 00000000 	 .word Event_Bus3_Handler
 301 0050 00000000 	 .word Event_Bus4_Handler
 302 0054 00000000 	 .word Event_Bus5_Handler
 303 0058 00000000 	 .word Event_Bus6_Handler
 304 005c 00000000 	 .word Event_Bus7_Handler
 305 0060 00000000 	 .word Event_Bus8_Handler
 306 0064 00000000 	 .word HPrio_Matrix0_Handler
 307 0068 00000000 	 .word HPrio_Matrix1_Handler
 308 006c 00000000 	 .word HPrio_Matrix2_Handler
 309 0070 00000000 	 .word HPrio_Matrix3_Handler
 310 0074 00000000 	 .word HPrio_Matrix4_Handler
 311 0078 00000000 	 .word HPrio_Matrix5_Handler
 312 007c 00000000 	 .word WDT_Handler
 313 0080 00000000 	 .word HW_field_off_Handler
 314 0084 00000000 	 .word HW_nvm_Handler
 315 0088 00000000 	 .word Unused1_Handler
 316 008c 00000000 	 .word Unused2_Handler
 317 0090 00000000 	 .word Unused3_Handler
 318 0094 00000000 	 .word Unused4_Handler
 319 0098 00000000 	 .word Unused5_Handler
 320 009c 00000000 	 .word Unused6_Handler
 321 00a0 00000000 	 .word Unused7_Handler
 322 00a4 00000000 	 .word Unused8_Handler
 323 00a8 00000000 	 .word Unused9_Handler
 324 00ac 00000000 	 .word Unused10_Handler
 325 00b0 00000000 	 .word Unused11_Handler
 326 00b4 00000000 	 .word Unused12_Handler
 327 00b8 00000000 	 .word Unused13_Handler
 328 00bc 00000000 	 .word Unused14_Handler
 329              	 .text
 330              	.Letext0:
 331              	 .file 3 "z:\\documents\\github\\opensesame\\tools\\extern\\gcc-arm-none-eabi\\arm-none-eabi\\include\\machine\\_default_types.h"
 332              	 .file 4 "z:\\documents\\github\\opensesame\\tools\\extern\\gcc-arm-none-eabi\\arm-none-eabi\\include\\sys\\_stdint.h"