Archive member included to satisfy reference by file (symbol)

Z:/Documents/GitHub/OpenSesame/smack_lib/build/image/\libsmack.a(shc_lib.o)
                              Z:/Documents/GitHub/OpenSesame/smack_sl/build/image/objects/smack_sl.o (shc_init)
Z:/Documents/GitHub/OpenSesame/smack_lib/build/image/\libsmack.a(smack_exchange.o)
                              Z:/Documents/GitHub/OpenSesame/smack_sl/build/image/objects/smack_dataexchange.o (smack_exchange_init)
Z:/Documents/GitHub/OpenSesame/smack_lib/build/image/\libsmack.a(sys_tim_lib.o)
                              Z:/Documents/GitHub/OpenSesame/smack_sl/build/image/objects/smack_sl.o (sys_tim_singleshot_32)
Z:/Documents/GitHub/OpenSesame/smack_lib/build/image/\libsmack.a(aes_lib.o)
                              Z:/Documents/GitHub/OpenSesame/smack_lib/build/image/\libsmack.a(smack_exchange.o) (aes_load_key_ba)
Z:/Documents/GitHub/OpenSesame/smack_lib/build/image/\libsmack.a(sense_lib.o)
                              Z:/Documents/GitHub/OpenSesame/smack_lib/build/image/\libsmack.a(shc_lib.o) (get_nfc_value_ext)
z:/documents/github/opensesame/tools/extern/gcc-arm-none-eabi/bin/../lib/gcc/arm-none-eabi/10.3.1/thumb/v6-m/nofp\libgcc.a(_thumb1_case_sqi.o)
                              Z:/Documents/GitHub/OpenSesame/smack_lib/build/image/\libsmack.a(smack_exchange.o) (__gnu_thumb1_case_sqi)
z:/documents/github/opensesame/tools/extern/gcc-arm-none-eabi/bin/../lib/gcc/arm-none-eabi/10.3.1/thumb/v6-m/nofp\libgcc.a(_thumb1_case_uqi.o)
                              Z:/Documents/GitHub/OpenSesame/smack_sl/build/image/objects/smack_sl.o (__gnu_thumb1_case_uqi)
z:/documents/github/opensesame/tools/extern/gcc-arm-none-eabi/bin/../lib/gcc/arm-none-eabi/10.3.1/thumb/v6-m/nofp\libgcc.a(_udivsi3.o)
                              Z:/Documents/GitHub/OpenSesame/smack_lib/build/image/\libsmack.a(sense_lib.o) (__aeabi_uidiv)
z:/documents/github/opensesame/tools/extern/gcc-arm-none-eabi/bin/../lib/gcc/arm-none-eabi/10.3.1/thumb/v6-m/nofp\libgcc.a(_dvmd_tls.o)
                              z:/documents/github/opensesame/tools/extern/gcc-arm-none-eabi/bin/../lib/gcc/arm-none-eabi/10.3.1/thumb/v6-m/nofp\libgcc.a(_udivsi3.o) (__aeabi_idiv0)
z:/documents/github/opensesame/tools/extern/gcc-arm-none-eabi/bin/../lib/gcc/arm-none-eabi/10.3.1/thumb/v6-m/nofp\libgcc.a(_fixunssfsi.o)
                              Z:/Documents/GitHub/OpenSesame/smack_sl/build/image/objects/smack_sl.o (__aeabi_f2uiz)
z:/documents/github/opensesame/tools/extern/gcc-arm-none-eabi/bin/../lib/gcc/arm-none-eabi/10.3.1/thumb/v6-m/nofp\libgcc.a(mulsf3.o)
                              Z:/Documents/GitHub/OpenSesame/smack_sl/build/image/objects/smack_sl.o (__aeabi_fmul)
z:/documents/github/opensesame/tools/extern/gcc-arm-none-eabi/bin/../lib/gcc/arm-none-eabi/10.3.1/thumb/v6-m/nofp\libgcc.a(subsf3.o)
                              z:/documents/github/opensesame/tools/extern/gcc-arm-none-eabi/bin/../lib/gcc/arm-none-eabi/10.3.1/thumb/v6-m/nofp\libgcc.a(_fixunssfsi.o) (__aeabi_fsub)
z:/documents/github/opensesame/tools/extern/gcc-arm-none-eabi/bin/../lib/gcc/arm-none-eabi/10.3.1/thumb/v6-m/nofp\libgcc.a(fixsfsi.o)
                              z:/documents/github/opensesame/tools/extern/gcc-arm-none-eabi/bin/../lib/gcc/arm-none-eabi/10.3.1/thumb/v6-m/nofp\libgcc.a(_fixunssfsi.o) (__aeabi_f2iz)
z:/documents/github/opensesame/tools/extern/gcc-arm-none-eabi/bin/../lib/gcc/arm-none-eabi/10.3.1/thumb/v6-m/nofp\libgcc.a(_arm_cmpsf2.o)
                              z:/documents/github/opensesame/tools/extern/gcc-arm-none-eabi/bin/../lib/gcc/arm-none-eabi/10.3.1/thumb/v6-m/nofp\libgcc.a(_fixunssfsi.o) (__aeabi_fcmpge)
z:/documents/github/opensesame/tools/extern/gcc-arm-none-eabi/bin/../lib/gcc/arm-none-eabi/10.3.1/thumb/v6-m/nofp\libgcc.a(_clzsi2.o)
                              z:/documents/github/opensesame/tools/extern/gcc-arm-none-eabi/bin/../lib/gcc/arm-none-eabi/10.3.1/thumb/v6-m/nofp\libgcc.a(mulsf3.o) (__clzsi2)
z:/documents/github/opensesame/tools/extern/gcc-arm-none-eabi/bin/../lib/gcc/arm-none-eabi/10.3.1/thumb/v6-m/nofp\libgcc.a(eqsf2.o)
                              z:/documents/github/opensesame/tools/extern/gcc-arm-none-eabi/bin/../lib/gcc/arm-none-eabi/10.3.1/thumb/v6-m/nofp\libgcc.a(_arm_cmpsf2.o) (__eqsf2)
z:/documents/github/opensesame/tools/extern/gcc-arm-none-eabi/bin/../lib/gcc/arm-none-eabi/10.3.1/thumb/v6-m/nofp\libgcc.a(gesf2.o)
                              z:/documents/github/opensesame/tools/extern/gcc-arm-none-eabi/bin/../lib/gcc/arm-none-eabi/10.3.1/thumb/v6-m/nofp\libgcc.a(_arm_cmpsf2.o) (__gesf2)
z:/documents/github/opensesame/tools/extern/gcc-arm-none-eabi/bin/../lib/gcc/arm-none-eabi/10.3.1/thumb/v6-m/nofp\libgcc.a(lesf2.o)
                              z:/documents/github/opensesame/tools/extern/gcc-arm-none-eabi/bin/../lib/gcc/arm-none-eabi/10.3.1/thumb/v6-m/nofp\libgcc.a(_arm_cmpsf2.o) (__lesf2)
z:/documents/github/opensesame/tools/extern/gcc-arm-none-eabi/bin/../lib/gcc/arm-none-eabi/10.3.1/../../../../arm-none-eabi/lib/thumb/v6-m/nofp\libc.a(lib_a-memcpy-stub.o)
                              Z:/Documents/GitHub/OpenSesame/smack_lib/build/image/\libsmack.a(smack_exchange.o) (memcpy)
z:/documents/github/opensesame/tools/extern/gcc-arm-none-eabi/bin/../lib/gcc/arm-none-eabi/10.3.1/../../../../arm-none-eabi/lib/thumb/v6-m/nofp\libc.a(lib_a-strncpy.o)
                              Z:/Documents/GitHub/OpenSesame/smack_lib/build/image/\libsmack.a(smack_exchange.o) (strncpy)
z:/documents/github/opensesame/tools/extern/gcc-arm-none-eabi/bin/../lib/gcc/arm-none-eabi/10.3.1/../../../../arm-none-eabi/lib/thumb/v6-m/nofp\libc.a(lib_a-strnlen.o)
                              Z:/Documents/GitHub/OpenSesame/smack_lib/build/image/\libsmack.a(smack_exchange.o) (strnlen)

Discarded input sections

 .text          0x00000000        0x0 Z:/Documents/GitHub/OpenSesame/smack_sl/build/image/objects/sl_aparam.o
 .data          0x00000000        0x0 Z:/Documents/GitHub/OpenSesame/smack_sl/build/image/objects/sl_aparam.o
 .bss           0x00000000        0x0 Z:/Documents/GitHub/OpenSesame/smack_sl/build/image/objects/sl_aparam.o
 .text.NVM_Reset_Handler
                0x00000000        0x2 Z:/Documents/GitHub/OpenSesame/smack_sl/build/image/objects/sl_aparam.o
 .text          0x00000000        0x0 Z:/Documents/GitHub/OpenSesame/smack_sl/build/image/objects/smack_dataexchange.o
 .data          0x00000000        0x0 Z:/Documents/GitHub/OpenSesame/smack_sl/build/image/objects/smack_dataexchange.o
 .bss           0x00000000        0x0 Z:/Documents/GitHub/OpenSesame/smack_sl/build/image/objects/smack_dataexchange.o
 .text          0x00000000        0x0 Z:/Documents/GitHub/OpenSesame/smack_sl/build/image/objects/smack_sl.o
 .data          0x00000000        0x0 Z:/Documents/GitHub/OpenSesame/smack_sl/build/image/objects/smack_sl.o
 .bss           0x00000000        0x0 Z:/Documents/GitHub/OpenSesame/smack_sl/build/image/objects/smack_sl.o
 .text.sweep_voltages
                0x00000000       0x40 Z:/Documents/GitHub/OpenSesame/smack_sl/build/image/objects/smack_sl.o
 .text.get_threshold_from_voltage
                0x00000000       0x14 Z:/Documents/GitHub/OpenSesame/smack_sl/build/image/objects/smack_sl.o
 .text.run_lock_state_machine
                0x00000000       0x24 Z:/Documents/GitHub/OpenSesame/smack_sl/build/image/objects/smack_sl.o
 .bss.done_sweep
                0x00000000        0x1 Z:/Documents/GitHub/OpenSesame/smack_sl/build/image/objects/smack_sl.o
 .bss.turn_cycles
                0x00000000        0x4 Z:/Documents/GitHub/OpenSesame/smack_sl/build/image/objects/smack_sl.o
 .bss.voltage_sweep
                0x00000000        0x2 Z:/Documents/GitHub/OpenSesame/smack_sl/build/image/objects/smack_sl.o
 .text          0x00000000        0x0 Z:/Documents/GitHub/OpenSesame/smack_sl/build/image/objects/startup_smack.o
 .data          0x00000000        0x0 Z:/Documents/GitHub/OpenSesame/smack_sl/build/image/objects/startup_smack.o
 .bss           0x00000000        0x0 Z:/Documents/GitHub/OpenSesame/smack_sl/build/image/objects/startup_smack.o
 .text          0x00000000        0x0 Z:/Documents/GitHub/OpenSesame/smack_sl/build/image/objects/version.o
 .data          0x00000000        0x0 Z:/Documents/GitHub/OpenSesame/smack_sl/build/image/objects/version.o
 .bss           0x00000000        0x0 Z:/Documents/GitHub/OpenSesame/smack_sl/build/image/objects/version.o
 .text          0x00000000        0x0 Z:/Documents/GitHub/OpenSesame/smack_lib/build/image/\libsmack.a(shc_lib.o)
 .data          0x00000000        0x0 Z:/Documents/GitHub/OpenSesame/smack_lib/build/image/\libsmack.a(shc_lib.o)
 .bss           0x00000000        0x0 Z:/Documents/GitHub/OpenSesame/smack_lib/build/image/\libsmack.a(shc_lib.o)
 .text.shc_close
                0x00000000       0x20 Z:/Documents/GitHub/OpenSesame/smack_lib/build/image/\libsmack.a(shc_lib.o)
 .text.shc_test
                0x00000000        0x4 Z:/Documents/GitHub/OpenSesame/smack_lib/build/image/\libsmack.a(shc_lib.o)
 .text          0x00000000        0x0 Z:/Documents/GitHub/OpenSesame/smack_lib/build/image/\libsmack.a(smack_exchange.o)
 .data          0x00000000        0x0 Z:/Documents/GitHub/OpenSesame/smack_lib/build/image/\libsmack.a(smack_exchange.o)
 .bss           0x00000000        0x0 Z:/Documents/GitHub/OpenSesame/smack_lib/build/image/\libsmack.a(smack_exchange.o)
 .text.smack_exchange_key_restore
                0x00000000       0x5c Z:/Documents/GitHub/OpenSesame/smack_lib/build/image/\libsmack.a(smack_exchange.o)
 .text.smack_exchange_alert
                0x00000000        0xc Z:/Documents/GitHub/OpenSesame/smack_lib/build/image/\libsmack.a(smack_exchange.o)
 .text          0x00000000        0x0 Z:/Documents/GitHub/OpenSesame/smack_lib/build/image/\libsmack.a(sys_tim_lib.o)
 .data          0x00000000        0x0 Z:/Documents/GitHub/OpenSesame/smack_lib/build/image/\libsmack.a(sys_tim_lib.o)
 .bss           0x00000000        0x0 Z:/Documents/GitHub/OpenSesame/smack_lib/build/image/\libsmack.a(sys_tim_lib.o)
 .text.sys_tim_singleshot
                0x00000000       0x90 Z:/Documents/GitHub/OpenSesame/smack_lib/build/image/\libsmack.a(sys_tim_lib.o)
 .text.sys_tim_cyclic_cascaded
                0x00000000       0xa8 Z:/Documents/GitHub/OpenSesame/smack_lib/build/image/\libsmack.a(sys_tim_lib.o)
 .text.sys_tim_cyclic_cascaded_stop
                0x00000000       0x60 Z:/Documents/GitHub/OpenSesame/smack_lib/build/image/\libsmack.a(sys_tim_lib.o)
 .text.sys_tim_cyclic_cascaded_get_upper
                0x00000000       0x1c Z:/Documents/GitHub/OpenSesame/smack_lib/build/image/\libsmack.a(sys_tim_lib.o)
 .text.sys_tim_cyclic_cascaded_get_combined
                0x00000000       0x40 Z:/Documents/GitHub/OpenSesame/smack_lib/build/image/\libsmack.a(sys_tim_lib.o)
 .text.sys_tim_close
                0x00000000       0x10 Z:/Documents/GitHub/OpenSesame/smack_lib/build/image/\libsmack.a(sys_tim_lib.o)
 .text.sys_tim_pwm_config
                0x00000000       0x4c Z:/Documents/GitHub/OpenSesame/smack_lib/build/image/\libsmack.a(sys_tim_lib.o)
 .text.sys_tim_pwm_start
                0x00000000       0x18 Z:/Documents/GitHub/OpenSesame/smack_lib/build/image/\libsmack.a(sys_tim_lib.o)
 .text.sys_tim_pwm_stop
                0x00000000       0x18 Z:/Documents/GitHub/OpenSesame/smack_lib/build/image/\libsmack.a(sys_tim_lib.o)
 .rodata.systimEmpty
                0x00000000        0x7 Z:/Documents/GitHub/OpenSesame/smack_lib/build/image/\libsmack.a(sys_tim_lib.o)
 .rodata.systimTimer1
                0x00000000        0x7 Z:/Documents/GitHub/OpenSesame/smack_lib/build/image/\libsmack.a(sys_tim_lib.o)
 .rodata.systimTimer2
                0x00000000        0x7 Z:/Documents/GitHub/OpenSesame/smack_lib/build/image/\libsmack.a(sys_tim_lib.o)
 .rodata.systimTimerCont.0
                0x00000000        0x7 Z:/Documents/GitHub/OpenSesame/smack_lib/build/image/\libsmack.a(sys_tim_lib.o)
 .text          0x00000000        0x0 Z:/Documents/GitHub/OpenSesame/smack_lib/build/image/\libsmack.a(aes_lib.o)
 .data          0x00000000        0x0 Z:/Documents/GitHub/OpenSesame/smack_lib/build/image/\libsmack.a(aes_lib.o)
 .bss           0x00000000        0x0 Z:/Documents/GitHub/OpenSesame/smack_lib/build/image/\libsmack.a(aes_lib.o)
 .text.generate_random_number_lib
                0x00000000       0x3c Z:/Documents/GitHub/OpenSesame/smack_lib/build/image/\libsmack.a(aes_lib.o)
 .text          0x00000000        0x0 Z:/Documents/GitHub/OpenSesame/smack_lib/build/image/\libsmack.a(sense_lib.o)
 .data          0x00000000        0x0 Z:/Documents/GitHub/OpenSesame/smack_lib/build/image/\libsmack.a(sense_lib.o)
 .bss           0x00000000        0x0 Z:/Documents/GitHub/OpenSesame/smack_lib/build/image/\libsmack.a(sense_lib.o)
 .text.sense_sh_ts
                0x00000000      0x130 Z:/Documents/GitHub/OpenSesame/smack_lib/build/image/\libsmack.a(sense_lib.o)
 .data          0x00000000        0x0 z:/documents/github/opensesame/tools/extern/gcc-arm-none-eabi/bin/../lib/gcc/arm-none-eabi/10.3.1/thumb/v6-m/nofp\libgcc.a(_thumb1_case_sqi.o)
 .bss           0x00000000        0x0 z:/documents/github/opensesame/tools/extern/gcc-arm-none-eabi/bin/../lib/gcc/arm-none-eabi/10.3.1/thumb/v6-m/nofp\libgcc.a(_thumb1_case_sqi.o)
 .data          0x00000000        0x0 z:/documents/github/opensesame/tools/extern/gcc-arm-none-eabi/bin/../lib/gcc/arm-none-eabi/10.3.1/thumb/v6-m/nofp\libgcc.a(_thumb1_case_uqi.o)
 .bss           0x00000000        0x0 z:/documents/github/opensesame/tools/extern/gcc-arm-none-eabi/bin/../lib/gcc/arm-none-eabi/10.3.1/thumb/v6-m/nofp\libgcc.a(_thumb1_case_uqi.o)
 .data          0x00000000        0x0 z:/documents/github/opensesame/tools/extern/gcc-arm-none-eabi/bin/../lib/gcc/arm-none-eabi/10.3.1/thumb/v6-m/nofp\libgcc.a(_udivsi3.o)
 .bss           0x00000000        0x0 z:/documents/github/opensesame/tools/extern/gcc-arm-none-eabi/bin/../lib/gcc/arm-none-eabi/10.3.1/thumb/v6-m/nofp\libgcc.a(_udivsi3.o)
 .data          0x00000000        0x0 z:/documents/github/opensesame/tools/extern/gcc-arm-none-eabi/bin/../lib/gcc/arm-none-eabi/10.3.1/thumb/v6-m/nofp\libgcc.a(_dvmd_tls.o)
 .bss           0x00000000        0x0 z:/documents/github/opensesame/tools/extern/gcc-arm-none-eabi/bin/../lib/gcc/arm-none-eabi/10.3.1/thumb/v6-m/nofp\libgcc.a(_dvmd_tls.o)
 .text          0x00000000       0x30 z:/documents/github/opensesame/tools/extern/gcc-arm-none-eabi/bin/../lib/gcc/arm-none-eabi/10.3.1/thumb/v6-m/nofp\libgcc.a(_fixunssfsi.o)
 .data          0x00000000        0x0 z:/documents/github/opensesame/tools/extern/gcc-arm-none-eabi/bin/../lib/gcc/arm-none-eabi/10.3.1/thumb/v6-m/nofp\libgcc.a(_fixunssfsi.o)
 .bss           0x00000000        0x0 z:/documents/github/opensesame/tools/extern/gcc-arm-none-eabi/bin/../lib/gcc/arm-none-eabi/10.3.1/thumb/v6-m/nofp\libgcc.a(_fixunssfsi.o)
 .debug_frame   0x00000000       0x28 z:/documents/github/opensesame/tools/extern/gcc-arm-none-eabi/bin/../lib/gcc/arm-none-eabi/10.3.1/thumb/v6-m/nofp\libgcc.a(_fixunssfsi.o)
 .ARM.attributes
                0x00000000       0x2c z:/documents/github/opensesame/tools/extern/gcc-arm-none-eabi/bin/../lib/gcc/arm-none-eabi/10.3.1/thumb/v6-m/nofp\libgcc.a(_fixunssfsi.o)
 .text          0x00000000      0x24c z:/documents/github/opensesame/tools/extern/gcc-arm-none-eabi/bin/../lib/gcc/arm-none-eabi/10.3.1/thumb/v6-m/nofp\libgcc.a(mulsf3.o)
 .data          0x00000000        0x0 z:/documents/github/opensesame/tools/extern/gcc-arm-none-eabi/bin/../lib/gcc/arm-none-eabi/10.3.1/thumb/v6-m/nofp\libgcc.a(mulsf3.o)
 .bss           0x00000000        0x0 z:/documents/github/opensesame/tools/extern/gcc-arm-none-eabi/bin/../lib/gcc/arm-none-eabi/10.3.1/thumb/v6-m/nofp\libgcc.a(mulsf3.o)
 .rodata        0x00000000       0x40 z:/documents/github/opensesame/tools/extern/gcc-arm-none-eabi/bin/../lib/gcc/arm-none-eabi/10.3.1/thumb/v6-m/nofp\libgcc.a(mulsf3.o)
 .debug_frame   0x00000000       0x38 z:/documents/github/opensesame/tools/extern/gcc-arm-none-eabi/bin/../lib/gcc/arm-none-eabi/10.3.1/thumb/v6-m/nofp\libgcc.a(mulsf3.o)
 .ARM.attributes
                0x00000000       0x2c z:/documents/github/opensesame/tools/extern/gcc-arm-none-eabi/bin/../lib/gcc/arm-none-eabi/10.3.1/thumb/v6-m/nofp\libgcc.a(mulsf3.o)
 .text          0x00000000      0x35c z:/documents/github/opensesame/tools/extern/gcc-arm-none-eabi/bin/../lib/gcc/arm-none-eabi/10.3.1/thumb/v6-m/nofp\libgcc.a(subsf3.o)
 .data          0x00000000        0x0 z:/documents/github/opensesame/tools/extern/gcc-arm-none-eabi/bin/../lib/gcc/arm-none-eabi/10.3.1/thumb/v6-m/nofp\libgcc.a(subsf3.o)
 .bss           0x00000000        0x0 z:/documents/github/opensesame/tools/extern/gcc-arm-none-eabi/bin/../lib/gcc/arm-none-eabi/10.3.1/thumb/v6-m/nofp\libgcc.a(subsf3.o)
 .debug_frame   0x00000000       0x38 z:/documents/github/opensesame/tools/extern/gcc-arm-none-eabi/bin/../lib/gcc/arm-none-eabi/10.3.1/thumb/v6-m/nofp\libgcc.a(subsf3.o)
 .ARM.attributes
                0x00000000       0x2c z:/documents/github/opensesame/tools/extern/gcc-arm-none-eabi/bin/../lib/gcc/arm-none-eabi/10.3.1/thumb/v6-m/nofp\libgcc.a(subsf3.o)
 .text          0x00000000       0x40 z:/documents/github/opensesame/tools/extern/gcc-arm-none-eabi/bin/../lib/gcc/arm-none-eabi/10.3.1/thumb/v6-m/nofp\libgcc.a(fixsfsi.o)
 .data          0x00000000        0x0 z:/documents/github/opensesame/tools/extern/gcc-arm-none-eabi/bin/../lib/gcc/arm-none-eabi/10.3.1/thumb/v6-m/nofp\libgcc.a(fixsfsi.o)
 .bss           0x00000000        0x0 z:/documents/github/opensesame/tools/extern/gcc-arm-none-eabi/bin/../lib/gcc/arm-none-eabi/10.3.1/thumb/v6-m/nofp\libgcc.a(fixsfsi.o)
 .debug_frame   0x00000000       0x20 z:/documents/github/opensesame/tools/extern/gcc-arm-none-eabi/bin/../lib/gcc/arm-none-eabi/10.3.1/thumb/v6-m/nofp\libgcc.a(fixsfsi.o)
 .ARM.attributes
                0x00000000       0x2c z:/documents/github/opensesame/tools/extern/gcc-arm-none-eabi/bin/../lib/gcc/arm-none-eabi/10.3.1/thumb/v6-m/nofp\libgcc.a(fixsfsi.o)
 .text          0x00000000       0x74 z:/documents/github/opensesame/tools/extern/gcc-arm-none-eabi/bin/../lib/gcc/arm-none-eabi/10.3.1/thumb/v6-m/nofp\libgcc.a(_arm_cmpsf2.o)
 .data          0x00000000        0x0 z:/documents/github/opensesame/tools/extern/gcc-arm-none-eabi/bin/../lib/gcc/arm-none-eabi/10.3.1/thumb/v6-m/nofp\libgcc.a(_arm_cmpsf2.o)
 .bss           0x00000000        0x0 z:/documents/github/opensesame/tools/extern/gcc-arm-none-eabi/bin/../lib/gcc/arm-none-eabi/10.3.1/thumb/v6-m/nofp\libgcc.a(_arm_cmpsf2.o)
 .ARM.attributes
                0x00000000       0x1e z:/documents/github/opensesame/tools/extern/gcc-arm-none-eabi/bin/../lib/gcc/arm-none-eabi/10.3.1/thumb/v6-m/nofp\libgcc.a(_arm_cmpsf2.o)
 .text          0x00000000       0x3c z:/documents/github/opensesame/tools/extern/gcc-arm-none-eabi/bin/../lib/gcc/arm-none-eabi/10.3.1/thumb/v6-m/nofp\libgcc.a(_clzsi2.o)
 .data          0x00000000        0x0 z:/documents/github/opensesame/tools/extern/gcc-arm-none-eabi/bin/../lib/gcc/arm-none-eabi/10.3.1/thumb/v6-m/nofp\libgcc.a(_clzsi2.o)
 .bss           0x00000000        0x0 z:/documents/github/opensesame/tools/extern/gcc-arm-none-eabi/bin/../lib/gcc/arm-none-eabi/10.3.1/thumb/v6-m/nofp\libgcc.a(_clzsi2.o)
 .ARM.attributes
                0x00000000       0x1e z:/documents/github/opensesame/tools/extern/gcc-arm-none-eabi/bin/../lib/gcc/arm-none-eabi/10.3.1/thumb/v6-m/nofp\libgcc.a(_clzsi2.o)
 .text          0x00000000       0x4c z:/documents/github/opensesame/tools/extern/gcc-arm-none-eabi/bin/../lib/gcc/arm-none-eabi/10.3.1/thumb/v6-m/nofp\libgcc.a(eqsf2.o)
 .data          0x00000000        0x0 z:/documents/github/opensesame/tools/extern/gcc-arm-none-eabi/bin/../lib/gcc/arm-none-eabi/10.3.1/thumb/v6-m/nofp\libgcc.a(eqsf2.o)
 .bss           0x00000000        0x0 z:/documents/github/opensesame/tools/extern/gcc-arm-none-eabi/bin/../lib/gcc/arm-none-eabi/10.3.1/thumb/v6-m/nofp\libgcc.a(eqsf2.o)
 .debug_frame   0x00000000       0x2c z:/documents/github/opensesame/tools/extern/gcc-arm-none-eabi/bin/../lib/gcc/arm-none-eabi/10.3.1/thumb/v6-m/nofp\libgcc.a(eqsf2.o)
 .ARM.attributes
                0x00000000       0x2c z:/documents/github/opensesame/tools/extern/gcc-arm-none-eabi/bin/../lib/gcc/arm-none-eabi/10.3.1/thumb/v6-m/nofp\libgcc.a(eqsf2.o)
 .text          0x00000000       0x8c z:/documents/github/opensesame/tools/extern/gcc-arm-none-eabi/bin/../lib/gcc/arm-none-eabi/10.3.1/thumb/v6-m/nofp\libgcc.a(gesf2.o)
 .data          0x00000000        0x0 z:/documents/github/opensesame/tools/extern/gcc-arm-none-eabi/bin/../lib/gcc/arm-none-eabi/10.3.1/thumb/v6-m/nofp\libgcc.a(gesf2.o)
 .bss           0x00000000        0x0 z:/documents/github/opensesame/tools/extern/gcc-arm-none-eabi/bin/../lib/gcc/arm-none-eabi/10.3.1/thumb/v6-m/nofp\libgcc.a(gesf2.o)
 .debug_frame   0x00000000       0x2c z:/documents/github/opensesame/tools/extern/gcc-arm-none-eabi/bin/../lib/gcc/arm-none-eabi/10.3.1/thumb/v6-m/nofp\libgcc.a(gesf2.o)
 .ARM.attributes
                0x00000000       0x2c z:/documents/github/opensesame/tools/extern/gcc-arm-none-eabi/bin/../lib/gcc/arm-none-eabi/10.3.1/thumb/v6-m/nofp\libgcc.a(gesf2.o)
 .text          0x00000000       0x88 z:/documents/github/opensesame/tools/extern/gcc-arm-none-eabi/bin/../lib/gcc/arm-none-eabi/10.3.1/thumb/v6-m/nofp\libgcc.a(lesf2.o)
 .data          0x00000000        0x0 z:/documents/github/opensesame/tools/extern/gcc-arm-none-eabi/bin/../lib/gcc/arm-none-eabi/10.3.1/thumb/v6-m/nofp\libgcc.a(lesf2.o)
 .bss           0x00000000        0x0 z:/documents/github/opensesame/tools/extern/gcc-arm-none-eabi/bin/../lib/gcc/arm-none-eabi/10.3.1/thumb/v6-m/nofp\libgcc.a(lesf2.o)
 .debug_frame   0x00000000       0x2c z:/documents/github/opensesame/tools/extern/gcc-arm-none-eabi/bin/../lib/gcc/arm-none-eabi/10.3.1/thumb/v6-m/nofp\libgcc.a(lesf2.o)
 .ARM.attributes
                0x00000000       0x2c z:/documents/github/opensesame/tools/extern/gcc-arm-none-eabi/bin/../lib/gcc/arm-none-eabi/10.3.1/thumb/v6-m/nofp\libgcc.a(lesf2.o)
 .text          0x00000000        0x0 z:/documents/github/opensesame/tools/extern/gcc-arm-none-eabi/bin/../lib/gcc/arm-none-eabi/10.3.1/../../../../arm-none-eabi/lib/thumb/v6-m/nofp\libc.a(lib_a-memcpy-stub.o)
 .data          0x00000000        0x0 z:/documents/github/opensesame/tools/extern/gcc-arm-none-eabi/bin/../lib/gcc/arm-none-eabi/10.3.1/../../../../arm-none-eabi/lib/thumb/v6-m/nofp\libc.a(lib_a-memcpy-stub.o)
 .bss           0x00000000        0x0 z:/documents/github/opensesame/tools/extern/gcc-arm-none-eabi/bin/../lib/gcc/arm-none-eabi/10.3.1/../../../../arm-none-eabi/lib/thumb/v6-m/nofp\libc.a(lib_a-memcpy-stub.o)
 .text          0x00000000        0x0 z:/documents/github/opensesame/tools/extern/gcc-arm-none-eabi/bin/../lib/gcc/arm-none-eabi/10.3.1/../../../../arm-none-eabi/lib/thumb/v6-m/nofp\libc.a(lib_a-strncpy.o)
 .data          0x00000000        0x0 z:/documents/github/opensesame/tools/extern/gcc-arm-none-eabi/bin/../lib/gcc/arm-none-eabi/10.3.1/../../../../arm-none-eabi/lib/thumb/v6-m/nofp\libc.a(lib_a-strncpy.o)
 .bss           0x00000000        0x0 z:/documents/github/opensesame/tools/extern/gcc-arm-none-eabi/bin/../lib/gcc/arm-none-eabi/10.3.1/../../../../arm-none-eabi/lib/thumb/v6-m/nofp\libc.a(lib_a-strncpy.o)
 .text          0x00000000        0x0 z:/documents/github/opensesame/tools/extern/gcc-arm-none-eabi/bin/../lib/gcc/arm-none-eabi/10.3.1/../../../../arm-none-eabi/lib/thumb/v6-m/nofp\libc.a(lib_a-strnlen.o)
 .data          0x00000000        0x0 z:/documents/github/opensesame/tools/extern/gcc-arm-none-eabi/bin/../lib/gcc/arm-none-eabi/10.3.1/../../../../arm-none-eabi/lib/thumb/v6-m/nofp\libc.a(lib_a-strnlen.o)
 .bss           0x00000000        0x0 z:/documents/github/opensesame/tools/extern/gcc-arm-none-eabi/bin/../lib/gcc/arm-none-eabi/10.3.1/../../../../arm-none-eabi/lib/thumb/v6-m/nofp\libc.a(lib_a-strnlen.o)

Memory Configuration

Name             Origin             Length             Attributes
ROM              0x00000000         0x00003ff4         xr
DPARAM           0x00010000         0x00000400         xr
APARAM           0x00010400         0x00000400         xr
NVM              0x00010800         0x0000e7f4         xr
RAM              0x00020000         0x00002000         xrw
RAM2             0x20000000         0x00002000         xrw
version          0x0001eff4         0x0000000c         r
*default*        0x00000000         0xffffffff

Linker script and memory map

LOAD Z:/Documents/GitHub/OpenSesame/smack_rom/build/image/image_rom.elf
LOAD Z:/Documents/GitHub/OpenSesame/smack_rom/build/dparams/default_dparam.elf
LOAD Z:/Documents/GitHub/OpenSesame/smack_sl/build/image/objects/sl_aparam.o
LOAD Z:/Documents/GitHub/OpenSesame/smack_sl/build/image/objects/smack_dataexchange.o
LOAD Z:/Documents/GitHub/OpenSesame/smack_sl/build/image/objects/smack_sl.o
LOAD Z:/Documents/GitHub/OpenSesame/smack_sl/build/image/objects/startup_smack.o
LOAD Z:/Documents/GitHub/OpenSesame/smack_sl/build/image/objects/version.o
LOAD Z:/Documents/GitHub/OpenSesame/smack_lib/build/image/\libsmack.a
START GROUP
LOAD z:/documents/github/opensesame/tools/extern/gcc-arm-none-eabi/bin/../lib/gcc/arm-none-eabi/10.3.1/thumb/v6-m/nofp\libgcc.a
LOAD z:/documents/github/opensesame/tools/extern/gcc-arm-none-eabi/bin/../lib/gcc/arm-none-eabi/10.3.1/../../../../arm-none-eabi/lib/thumb/v6-m/nofp\libc.a
END GROUP
                0x00000000                __ROM_BASE = 0x0
                0x00003ff4                __ROM_SIZE = 0x4000
                0x00010000                __DPARAM_BASE = 0x10000
                0x00000400                __DPARAM_SIZE = 0x400
                0x00010400                __APARAM_BASE = 0x10400
                0x00000400                __APARAM_SIZE = 0x400
                0x00010800                __NVM_BASE = 0x10800
                0x0000e7f4                __NVM_SIZE = 0xe800
                0x00020000                __RAM_BASE = 0x20000
                0x00002000                __RAM_SIZE = 0x2000
                0x20000000                __RAM2_BASE = 0x20000000
                0x00002000                __RAM2_SIZE = 0x2000
                0x00000400                __STACK_SIZE = 0x400
                0x00000000                __HEAP_SIZE = 0x0
                0x0000000c                section_version_size = 0xc
                0x00003ff4                __ROM_SIZE = (__ROM_SIZE - section_version_size)
                0x0000e7f4                __NVM_SIZE = (__NVM_SIZE - section_version_size)
                0x0001eff4                section_version_base = (__NVM_BASE + __NVM_SIZE)

.version        0x0001eff4        0xc
 *(.rodata.version)
 .rodata.version
                0x0001eff4        0xc Z:/Documents/GitHub/OpenSesame/smack_sl/build/image/objects/version.o
                0x0001eff4                version

.dparam         0x00010000        0x0
                0x00010000                . = ORIGIN (DPARAM)
                0x00010000                __nvm_dparam_section_start__ = .
 *(.nvm.DPARAMS)
                0x00010000                __nvm_dparam_section_end__ = .

.aparam         0x00010400      0x400
                0x00010400                __nvm_aparam_section_start__ = .
 *(.nvm.APARAMS)
 .nvm.APARAMS   0x00010400      0x400 Z:/Documents/GitHub/OpenSesame/smack_sl/build/image/objects/sl_aparam.o
                0x00010800                __nvm_aparam_section_end__ = .

.text           0x00010800     0x1357
                0x00010800                __NVM_FIRMWARE_START = .
 *(.vectors)
 .vectors       0x00010800       0xc0 Z:/Documents/GitHub/OpenSesame/smack_sl/build/image/objects/startup_smack.o
                0x00010800                __Vectors
 *(.text*)
 .text.vars_init
                0x000108c0       0x7c Z:/Documents/GitHub/OpenSesame/smack_sl/build/image/objects/smack_dataexchange.o
                0x000108c0                vars_init
 .text.example_handler
                0x0001093c       0x10 Z:/Documents/GitHub/OpenSesame/smack_sl/build/image/objects/smack_sl.o
                0x0001093c                example_handler
 .text.hardfault_handler
                0x0001094c       0x14 Z:/Documents/GitHub/OpenSesame/smack_sl/build/image/objects/smack_sl.o
                0x0001094c                hardfault_handler
 .text.toggle_lock
                0x00010960       0xfc Z:/Documents/GitHub/OpenSesame/smack_sl/build/image/objects/smack_sl.o
                0x00010960                toggle_lock
 .text.turn_motor
                0x00010a5c       0x7c Z:/Documents/GitHub/OpenSesame/smack_sl/build/image/objects/smack_sl.o
                0x00010a5c                turn_motor
 .text.run_power_state_machine
                0x00010ad8      0x158 Z:/Documents/GitHub/OpenSesame/smack_sl/build/image/objects/smack_sl.o
                0x00010ad8                run_power_state_machine
 .text._nvm_start
                0x00010c30       0x44 Z:/Documents/GitHub/OpenSesame/smack_sl/build/image/objects/smack_sl.o
                0x00010c30                _nvm_start
 .text.Default_Handler
                0x00010c74        0x2 Z:/Documents/GitHub/OpenSesame/smack_sl/build/image/objects/startup_smack.o
                0x00010c74                HPrio_Matrix3_Handler
                0x00010c74                HPrio_Matrix5_Handler
                0x00010c74                HardFault_Handler
                0x00010c74                SysTick_Handler
                0x00010c74                HPrio_Matrix0_Handler
                0x00010c74                PendSV_Handler
                0x00010c74                NMI_Handler
                0x00010c74                Event_Bus6_Handler
                0x00010c74                Unused1_Handler
                0x00010c74                Unused7_Handler
                0x00010c74                Event_Bus1_Handler
                0x00010c74                HPrio_Matrix4_Handler
                0x00010c74                Unused6_Handler
                0x00010c74                HPrio_Matrix2_Handler
                0x00010c74                Unused3_Handler
                0x00010c74                Unused13_Handler
                0x00010c74                Unused8_Handler
                0x00010c74                WDT_Handler
                0x00010c74                HPrio_Matrix1_Handler
                0x00010c74                Event_Bus8_Handler
                0x00010c74                Cl_uart_Handler
                0x00010c74                Default_Handler
                0x00010c74                Unused2_Handler
                0x00010c74                HW_field_off_Handler
                0x00010c74                Event_Bus2_Handler
                0x00010c74                Unused9_Handler
                0x00010c74                Unused11_Handler
                0x00010c74                SVC_Handler
                0x00010c74                Unused10_Handler
                0x00010c74                Event_Bus3_Handler
                0x00010c74                Event_Bus7_Handler
                0x00010c74                Unused4_Handler
                0x00010c74                Event_Bus5_Handler
                0x00010c74                HW_nvm_Handler
                0x00010c74                Unused12_Handler
                0x00010c74                Unused5_Handler
                0x00010c74                Event_Bus4_Handler
                0x00010c74                Unused14_Handler
 *fill*         0x00010c76        0x2 
 .text.NVM_Reset_Handler
                0x00010c78       0x58 Z:/Documents/GitHub/OpenSesame/smack_sl/build/image/objects/startup_smack.o
                0x00010c78                NVM_Reset_Handler
 .text.shc_init
                0x00010cd0       0x20 Z:/Documents/GitHub/OpenSesame/smack_lib/build/image/\libsmack.a(shc_lib.o)
                0x00010cd0                shc_init
 .text.shc_compare
                0x00010cf0       0x12 Z:/Documents/GitHub/OpenSesame/smack_lib/build/image/\libsmack.a(shc_lib.o)
                0x00010cf0                shc_compare
 *fill*         0x00010d02        0x2 
 .text.smack_exchange_notify_tx
                0x00010d04       0x1c Z:/Documents/GitHub/OpenSesame/smack_lib/build/image/\libsmack.a(smack_exchange.o)
 .text.smack_exchange_init
                0x00010d20       0x2c Z:/Documents/GitHub/OpenSesame/smack_lib/build/image/\libsmack.a(smack_exchange.o)
                0x00010d20                smack_exchange_init
 .text.smack_exchange_key_set
                0x00010d4c       0x40 Z:/Documents/GitHub/OpenSesame/smack_lib/build/image/\libsmack.a(smack_exchange.o)
                0x00010d4c                smack_exchange_key_set
 .text.smack_exchange_handler
                0x00010d8c      0x4a0 Z:/Documents/GitHub/OpenSesame/smack_lib/build/image/\libsmack.a(smack_exchange.o)
                0x00010d8c                smack_exchange_handler
 .text.sys_tim_set_matrix
                0x0001122c       0x4c Z:/Documents/GitHub/OpenSesame/smack_lib/build/image/\libsmack.a(sys_tim_lib.o)
 .text.sys_tim_singleshot_32
                0x00011278       0xd4 Z:/Documents/GitHub/OpenSesame/smack_lib/build/image/\libsmack.a(sys_tim_lib.o)
                0x00011278                sys_tim_singleshot_32
 .text.aes_load_key_ba
                0x0001134c       0x4c Z:/Documents/GitHub/OpenSesame/smack_lib/build/image/\libsmack.a(aes_lib.o)
                0x0001134c                aes_load_key_ba
 .text.calc_aes_ba
                0x00011398       0x8c Z:/Documents/GitHub/OpenSesame/smack_lib/build/image/\libsmack.a(aes_lib.o)
                0x00011398                calc_aes_ba
 .text.rand_lib
                0x00011424       0x70 Z:/Documents/GitHub/OpenSesame/smack_lib/build/image/\libsmack.a(aes_lib.o)
                0x00011424                rand_lib
 .text.generate_random_number_fast
                0x00011494       0x18 Z:/Documents/GitHub/OpenSesame/smack_lib/build/image/\libsmack.a(aes_lib.o)
                0x00011494                generate_random_number_fast
 .text.get_nfc_value_ext_m
                0x000114ac      0x2f0 Z:/Documents/GitHub/OpenSesame/smack_lib/build/image/\libsmack.a(sense_lib.o)
                0x000114ac                get_nfc_value_ext_m
 .text.get_nfc_value_ext
                0x0001179c        0xe Z:/Documents/GitHub/OpenSesame/smack_lib/build/image/\libsmack.a(sense_lib.o)
                0x0001179c                get_nfc_value_ext
 *fill*         0x000117aa        0x2 
 .text          0x000117ac       0x14 z:/documents/github/opensesame/tools/extern/gcc-arm-none-eabi/bin/../lib/gcc/arm-none-eabi/10.3.1/thumb/v6-m/nofp\libgcc.a(_thumb1_case_sqi.o)
                0x000117ac                __gnu_thumb1_case_sqi
 .text          0x000117c0       0x14 z:/documents/github/opensesame/tools/extern/gcc-arm-none-eabi/bin/../lib/gcc/arm-none-eabi/10.3.1/thumb/v6-m/nofp\libgcc.a(_thumb1_case_uqi.o)
                0x000117c0                __gnu_thumb1_case_uqi
 .text          0x000117d4      0x114 z:/documents/github/opensesame/tools/extern/gcc-arm-none-eabi/bin/../lib/gcc/arm-none-eabi/10.3.1/thumb/v6-m/nofp\libgcc.a(_udivsi3.o)
                0x000117d4                __aeabi_uidiv
                0x000117d4                __udivsi3
                0x000118e0                __aeabi_uidivmod
 .text          0x000118e8        0x4 z:/documents/github/opensesame/tools/extern/gcc-arm-none-eabi/bin/../lib/gcc/arm-none-eabi/10.3.1/thumb/v6-m/nofp\libgcc.a(_dvmd_tls.o)
                0x000118e8                __aeabi_idiv0
                0x000118e8                __aeabi_ldiv0
 .text.memcpy   0x000118ec       0xa4 z:/documents/github/opensesame/tools/extern/gcc-arm-none-eabi/bin/../lib/gcc/arm-none-eabi/10.3.1/../../../../arm-none-eabi/lib/thumb/v6-m/nofp\libc.a(lib_a-memcpy-stub.o)
                0x000118ec                memcpy
 .text.strncpy  0x00011990       0x6c z:/documents/github/opensesame/tools/extern/gcc-arm-none-eabi/bin/../lib/gcc/arm-none-eabi/10.3.1/../../../../arm-none-eabi/lib/thumb/v6-m/nofp\libc.a(lib_a-strncpy.o)
                0x00011990                strncpy
 .text.strnlen  0x000119fc       0x24 z:/documents/github/opensesame/tools/extern/gcc-arm-none-eabi/bin/../lib/gcc/arm-none-eabi/10.3.1/../../../../arm-none-eabi/lib/thumb/v6-m/nofp\libc.a(lib_a-strnlen.o)
                0x000119fc                strnlen
 *(.init)
 *(.fini)
 *crtbegin.o(.ctors)
 *crtbegin?.o(.ctors)
 *(EXCLUDE_FILE(*crtend.o *crtend?.o) .ctors)
 *(SORT_BY_NAME(.ctors.*))
 *(.ctors)
 *crtbegin.o(.dtors)
 *crtbegin?.o(.dtors)
 *(EXCLUDE_FILE(*crtend.o *crtend?.o) .dtors)
 *(SORT_BY_NAME(.dtors.*))
 *(.dtors)
 *(.rodata*)
 .rodata.aes_default_key
                0x00011a20       0x10 Z:/Documents/GitHub/OpenSesame/smack_sl/build/image/objects/smack_dataexchange.o
 .rodata.data_point_list
                0x00011a30       0xc0 Z:/Documents/GitHub/OpenSesame/smack_sl/build/image/objects/smack_dataexchange.o
 .rodata.smack_sl_tag
                0x00011af0       0x67 Z:/Documents/GitHub/OpenSesame/smack_sl/build/image/objects/smack_sl.o
                0x00011af0                smack_sl_tag
 *(.eh_frame*)

.glue_7         0x00011b58        0x0
 .glue_7        0x00011b58        0x0 linker stubs

.glue_7t        0x00011b58        0x0
 .glue_7t       0x00011b58        0x0 linker stubs

.vfp11_veneer   0x00011b58        0x0
 .vfp11_veneer  0x00011b58        0x0 linker stubs

.v4_bx          0x00011b58        0x0
 .v4_bx         0x00011b58        0x0 linker stubs

.iplt           0x00011b58        0x0
 .iplt          0x00011b58        0x0 Z:/Documents/GitHub/OpenSesame/smack_sl/build/image/objects/sl_aparam.o

.rel.dyn        0x00011b58        0x0
 .rel.iplt      0x00011b58        0x0 Z:/Documents/GitHub/OpenSesame/smack_sl/build/image/objects/sl_aparam.o

.gnu.sgstubs    0x00011b57        0x9
                0x00011b60                . = ALIGN (0x20)
 *fill*         0x00011b57        0x9 

.ARM.extab
 *(.ARM.extab* .gnu.linkonce.armextab.*)
                0x00011b60                __exidx_start = .

.ARM.exidx
 *(.ARM.exidx* .gnu.linkonce.armexidx.*)
                0x00011b60                __exidx_end = .

.copy.table     0x00011b60        0xc
                0x00011b60                . = ALIGN (0x4)
                0x00011b60                __nvm_copy_table_start__ = .
                0x00011b60        0x4 LONG 0x11b74 __etext
                0x00011b64        0x4 LONG 0x20600 __data_start__
                0x00011b68        0x4 LONG 0x0 ((__data_end__ - __data_start__) / 0x4)
                0x00011b6c                __nvm_copy_table_end__ = .

.zero.table     0x00011b6c        0x8
                0x00011b6c                . = ALIGN (0x4)
                0x00011b6c                __nvm_zero_table_start__ = .
                0x00011b6c        0x4 LONG 0x20600 __bss_start__
                0x00011b70        0x4 LONG 0x6e ((__bss_end__ - __bss_start__) / 0x4)
                0x00011b74                __nvm_zero_table_end__ = .
                0x00011b74                __etext = ALIGN (0x4)

.data_romcode   0x00020000      0x600
                0x00020000                . = ALIGN (0x4)
                0x00020000                __data_romcode_start__ = .
                0x00020600                . = (. + (__romcode_ram_end_ - __RAM_BASE))
 *fill*         0x00020000      0x600 
                0x00020600                . = ALIGN (0x4)
                0x00020600                __data_romcode_end__ = .

.data           0x00020600        0x0 load address 0x00011b74
                0x00020600                . = ALIGN (0x4)
                0x00020600                __data_start__ = .
 *(vtable)
 *(.data)
 *(.data.*)
                0x00020600                . = ALIGN (0x4)
                [!provide]                PROVIDE (__preinit_array_start = .)
 *(.preinit_array)
                [!provide]                PROVIDE (__preinit_array_end = .)
                0x00020600                . = ALIGN (0x4)
                [!provide]                PROVIDE (__init_array_start = .)
 *(SORT_BY_NAME(.init_array.*))
 *(.init_array)
                [!provide]                PROVIDE (__init_array_end = .)
                0x00020600                . = ALIGN (0x4)
                [!provide]                PROVIDE (__fini_array_start = .)
 *(SORT_BY_NAME(.fini_array.*))
 *(.fini_array)
                [!provide]                PROVIDE (__fini_array_end = .)
 *(.jcr*)
                0x00020600                . = ALIGN (0x4)
                0x00020600                __data_end__ = .

.igot.plt       0x00020600        0x0
 .igot.plt      0x00020600        0x0 Z:/Documents/GitHub/OpenSesame/smack_sl/build/image/objects/sl_aparam.o

.ram2_dma       0x20000000      0x200
                0x20000000                . = ALIGN (0x4)
                0x20000000                __ram2_dma_section_start__ = .
                0x20000200                . = (. + (__romcode_ram2_end_ - __RAM2_BASE))
 *fill*         0x20000000      0x200 
                0x20000200                __ram2_dma_section_end__ = .

.ram2           0x20000200        0x0
                0x20000200                . = ALIGN (0x4)
 *(.ram2)
 *(.ram2.*)
                0x20000200                __ram2_section_end__ = .

.bss            0x00020600      0x1b8
                0x00020600                . = ALIGN (0x4)
                0x00020600                __bss_start__ = .
 *(.bss)
 *(.bss.*)
 .bss.count8    0x00020600        0x1 Z:/Documents/GitHub/OpenSesame/smack_sl/build/image/objects/smack_dataexchange.o
 *fill*         0x00020601        0x1 
 .bss.humidity  0x00020602        0x2 Z:/Documents/GitHub/OpenSesame/smack_sl/build/image/objects/smack_dataexchange.o
 .bss.m_reserved
                0x00020604        0x4 Z:/Documents/GitHub/OpenSesame/smack_sl/build/image/objects/smack_dataexchange.o
 .bss.pressure  0x00020608        0x2 Z:/Documents/GitHub/OpenSesame/smack_sl/build/image/objects/smack_dataexchange.o
 *fill*         0x0002060a        0x6 
 .bss.scratch64
                0x00020610        0x8 Z:/Documents/GitHub/OpenSesame/smack_sl/build/image/objects/smack_dataexchange.o
 .bss.scratch8  0x00020618        0x1 Z:/Documents/GitHub/OpenSesame/smack_sl/build/image/objects/smack_dataexchange.o
 .bss.scratch_str
                0x00020619       0x64 Z:/Documents/GitHub/OpenSesame/smack_sl/build/image/objects/smack_dataexchange.o
 *fill*         0x0002067d        0x1 
 .bss.temperature
                0x0002067e        0x2 Z:/Documents/GitHub/OpenSesame/smack_sl/build/image/objects/smack_dataexchange.o
 .bss.uid       0x00020680        0x8 Z:/Documents/GitHub/OpenSesame/smack_sl/build/image/objects/smack_dataexchange.o
 .bss.current_state
                0x00020688        0x1 Z:/Documents/GitHub/OpenSesame/smack_sl/build/image/objects/smack_sl.o
                0x00020688                current_state
 *fill*         0x00020689        0x3 
 .bss.example_counter
                0x0002068c        0x4 Z:/Documents/GitHub/OpenSesame/smack_sl/build/image/objects/smack_sl.o
 .bss.sl_counter
                0x00020690        0x4 Z:/Documents/GitHub/OpenSesame/smack_sl/build/image/objects/smack_sl.o
                0x00020690                sl_counter
 .bss.aes_key   0x00020694       0x10 Z:/Documents/GitHub/OpenSesame/smack_lib/build/image/\libsmack.a(smack_exchange.o)
 .bss.alert     0x000206a4        0x1 Z:/Documents/GitHub/OpenSesame/smack_lib/build/image/\libsmack.a(smack_exchange.o)
 *fill*         0x000206a5        0x1 
 .bss.data_point_count
                0x000206a6        0x2 Z:/Documents/GitHub/OpenSesame/smack_lib/build/image/\libsmack.a(smack_exchange.o)
 .bss.data_points
                0x000206a8        0x4 Z:/Documents/GitHub/OpenSesame/smack_lib/build/image/\libsmack.a(smack_exchange.o)
 *fill*         0x000206ac        0x4 
 .bss.de_data   0x000206b0       0xf8 Z:/Documents/GitHub/OpenSesame/smack_lib/build/image/\libsmack.a(smack_exchange.o)
 .bss.buffer    0x000207a8       0x10 Z:/Documents/GitHub/OpenSesame/smack_lib/build/image/\libsmack.a(aes_lib.o)
 *(COMMON)
                0x000207b8                . = ALIGN (0x4)
                0x000207b8                __bss_end__ = .

.noinit         0x000207b8        0x0
                0x000207b8                . = ALIGN (0x4)
                0x000207b8                __noinit_start__ = .
 *(.noinit)
 *(.noinit.*)
                0x000207b8                . = ALIGN (0x4)
                0x000207b8                __noinit_end__ = .

.heap           0x000207b8        0x0
                0x000207b8                . = ALIGN (0x4)
                0x000207b8                __end__ = .
                [!provide]                PROVIDE (end = .)
                0x000207b8                . = (. + __HEAP_SIZE)
                0x000207b8                . = ALIGN (0x4)
                0x000207b8                __HeapLimit = .

.stack          0x000207b8     0x1848
                0x00021c00                . = ((ORIGIN (RAM) + LENGTH (RAM)) - __STACK_SIZE)
 *fill*         0x000207b8     0x1448 
                0x00021c00                . = ALIGN (0x4)
                0x00021c00                __StackLimit = .
                0x00022000                . = (. + __STACK_SIZE)
 *fill*         0x00021c00      0x400 
                0x00022000                . = ALIGN (0x4)
                0x00022000                __StackTop = .
                [!provide]                PROVIDE (__stack = __StackTop)
                0x00000001                ASSERT ((__StackLimit >= __HeapLimit), region RAM overflowed with stack)
                0x00011b74                pad_start = (__etext + SIZEOF (.data))
                0x0000d47f                pad_size = ((section_version_base - pad_start) - 0x1)

.text.pad2      0x00011b74     0xd480
                0x0001eff3                . = (. + pad_size)
 *fill*         0x00011b74     0xd47f ffff
                0x0001eff3        0x1 BYTE 0xff
OUTPUT(Z:/Documents/GitHub/OpenSesame/smack_sl/build/image/image_nvm_nocrc.elf elf32-littlearm)
LOAD linker stubs

.debug_info     0x00000000    0x16669
 .debug_info    0x00000000      0x65a Z:/Documents/GitHub/OpenSesame/smack_sl/build/image/objects/sl_aparam.o
 .debug_info    0x0000065a      0x603 Z:/Documents/GitHub/OpenSesame/smack_sl/build/image/objects/smack_dataexchange.o
 .debug_info    0x00000c5d     0x2ace Z:/Documents/GitHub/OpenSesame/smack_sl/build/image/objects/smack_sl.o
 .debug_info    0x0000372b      0x2e7 Z:/Documents/GitHub/OpenSesame/smack_sl/build/image/objects/startup_smack.o
 .debug_info    0x00003a12      0x18f Z:/Documents/GitHub/OpenSesame/smack_sl/build/image/objects/version.o
 .debug_info    0x00003ba1     0x26ce Z:/Documents/GitHub/OpenSesame/smack_lib/build/image/\libsmack.a(shc_lib.o)
 .debug_info    0x0000626f     0x37ff Z:/Documents/GitHub/OpenSesame/smack_lib/build/image/\libsmack.a(smack_exchange.o)
 .debug_info    0x00009a6e     0x41bf Z:/Documents/GitHub/OpenSesame/smack_lib/build/image/\libsmack.a(sys_tim_lib.o)
 .debug_info    0x0000dc2d     0x3222 Z:/Documents/GitHub/OpenSesame/smack_lib/build/image/\libsmack.a(aes_lib.o)
 .debug_info    0x00010e4f     0x581a Z:/Documents/GitHub/OpenSesame/smack_lib/build/image/\libsmack.a(sense_lib.o)

.debug_abbrev   0x00000000     0x1d29
 .debug_abbrev  0x00000000       0xb9 Z:/Documents/GitHub/OpenSesame/smack_sl/build/image/objects/sl_aparam.o
 .debug_abbrev  0x000000b9      0x1a4 Z:/Documents/GitHub/OpenSesame/smack_sl/build/image/objects/smack_dataexchange.o
 .debug_abbrev  0x0000025d      0x43f Z:/Documents/GitHub/OpenSesame/smack_sl/build/image/objects/smack_sl.o
 .debug_abbrev  0x0000069c      0x1a7 Z:/Documents/GitHub/OpenSesame/smack_sl/build/image/objects/startup_smack.o
 .debug_abbrev  0x00000843       0xc6 Z:/Documents/GitHub/OpenSesame/smack_sl/build/image/objects/version.o
 .debug_abbrev  0x00000909      0x323 Z:/Documents/GitHub/OpenSesame/smack_lib/build/image/\libsmack.a(shc_lib.o)
 .debug_abbrev  0x00000c2c      0x46d Z:/Documents/GitHub/OpenSesame/smack_lib/build/image/\libsmack.a(smack_exchange.o)
 .debug_abbrev  0x00001099      0x4c7 Z:/Documents/GitHub/OpenSesame/smack_lib/build/image/\libsmack.a(sys_tim_lib.o)
 .debug_abbrev  0x00001560      0x3ea Z:/Documents/GitHub/OpenSesame/smack_lib/build/image/\libsmack.a(aes_lib.o)
 .debug_abbrev  0x0000194a      0x3df Z:/Documents/GitHub/OpenSesame/smack_lib/build/image/\libsmack.a(sense_lib.o)

.debug_aranges  0x00000000      0x240
 .debug_aranges
                0x00000000       0x20 Z:/Documents/GitHub/OpenSesame/smack_sl/build/image/objects/sl_aparam.o
 .debug_aranges
                0x00000020       0x20 Z:/Documents/GitHub/OpenSesame/smack_sl/build/image/objects/smack_dataexchange.o
 .debug_aranges
                0x00000040       0x60 Z:/Documents/GitHub/OpenSesame/smack_sl/build/image/objects/smack_sl.o
 .debug_aranges
                0x000000a0       0x28 Z:/Documents/GitHub/OpenSesame/smack_sl/build/image/objects/startup_smack.o
 .debug_aranges
                0x000000c8       0x18 Z:/Documents/GitHub/OpenSesame/smack_sl/build/image/objects/version.o
 .debug_aranges
                0x000000e0       0x38 Z:/Documents/GitHub/OpenSesame/smack_lib/build/image/\libsmack.a(shc_lib.o)
 .debug_aranges
                0x00000118       0x48 Z:/Documents/GitHub/OpenSesame/smack_lib/build/image/\libsmack.a(smack_exchange.o)
 .debug_aranges
                0x00000160       0x70 Z:/Documents/GitHub/OpenSesame/smack_lib/build/image/\libsmack.a(sys_tim_lib.o)
 .debug_aranges
                0x000001d0       0x40 Z:/Documents/GitHub/OpenSesame/smack_lib/build/image/\libsmack.a(aes_lib.o)
 .debug_aranges
                0x00000210       0x30 Z:/Documents/GitHub/OpenSesame/smack_lib/build/image/\libsmack.a(sense_lib.o)

.debug_ranges   0x00000000     0x2690
 .debug_ranges  0x00000000       0x10 Z:/Documents/GitHub/OpenSesame/smack_sl/build/image/objects/sl_aparam.o
 .debug_ranges  0x00000010       0x10 Z:/Documents/GitHub/OpenSesame/smack_sl/build/image/objects/smack_dataexchange.o
 .debug_ranges  0x00000020       0x68 Z:/Documents/GitHub/OpenSesame/smack_sl/build/image/objects/smack_sl.o
 .debug_ranges  0x00000088       0xa0 Z:/Documents/GitHub/OpenSesame/smack_sl/build/image/objects/startup_smack.o
 .debug_ranges  0x00000128       0xf8 Z:/Documents/GitHub/OpenSesame/smack_lib/build/image/\libsmack.a(shc_lib.o)
 .debug_ranges  0x00000220      0x4e0 Z:/Documents/GitHub/OpenSesame/smack_lib/build/image/\libsmack.a(smack_exchange.o)
 .debug_ranges  0x00000700      0x908 Z:/Documents/GitHub/OpenSesame/smack_lib/build/image/\libsmack.a(sys_tim_lib.o)
 .debug_ranges  0x00001008      0x4f0 Z:/Documents/GitHub/OpenSesame/smack_lib/build/image/\libsmack.a(aes_lib.o)
 .debug_ranges  0x000014f8     0x1198 Z:/Documents/GitHub/OpenSesame/smack_lib/build/image/\libsmack.a(sense_lib.o)

.debug_line     0x00000000     0x57f7
 .debug_line    0x00000000      0x1c2 Z:/Documents/GitHub/OpenSesame/smack_sl/build/image/objects/sl_aparam.o
 .debug_line    0x000001c2      0x292 Z:/Documents/GitHub/OpenSesame/smack_sl/build/image/objects/smack_dataexchange.o
 .debug_line    0x00000454      0x6fa Z:/Documents/GitHub/OpenSesame/smack_sl/build/image/objects/smack_sl.o
 .debug_line    0x00000b4e      0x23d Z:/Documents/GitHub/OpenSesame/smack_sl/build/image/objects/startup_smack.o
 .debug_line    0x00000d8b      0x164 Z:/Documents/GitHub/OpenSesame/smack_sl/build/image/objects/version.o
 .debug_line    0x00000eef      0x481 Z:/Documents/GitHub/OpenSesame/smack_lib/build/image/\libsmack.a(shc_lib.o)
 .debug_line    0x00001370      0xea5 Z:/Documents/GitHub/OpenSesame/smack_lib/build/image/\libsmack.a(smack_exchange.o)
 .debug_line    0x00002215     0x1106 Z:/Documents/GitHub/OpenSesame/smack_lib/build/image/\libsmack.a(sys_tim_lib.o)
 .debug_line    0x0000331b      0x9ba Z:/Documents/GitHub/OpenSesame/smack_lib/build/image/\libsmack.a(aes_lib.o)
 .debug_line    0x00003cd5     0x1b22 Z:/Documents/GitHub/OpenSesame/smack_lib/build/image/\libsmack.a(sense_lib.o)

.debug_str      0x00000000     0x4b61
 .debug_str     0x00000000      0x620 Z:/Documents/GitHub/OpenSesame/smack_sl/build/image/objects/sl_aparam.o
                                0x66e (size before relaxing)
 .debug_str     0x00000620      0x369 Z:/Documents/GitHub/OpenSesame/smack_sl/build/image/objects/smack_dataexchange.o
                                0x54b (size before relaxing)
 .debug_str     0x00000989     0x1990 Z:/Documents/GitHub/OpenSesame/smack_sl/build/image/objects/smack_sl.o
                               0x20eb (size before relaxing)
 .debug_str     0x00002319      0x108 Z:/Documents/GitHub/OpenSesame/smack_sl/build/image/objects/startup_smack.o
                                0x293 (size before relaxing)
 .debug_str     0x00002421       0x80 Z:/Documents/GitHub/OpenSesame/smack_sl/build/image/objects/version.o
                                0x214 (size before relaxing)
 .debug_str     0x000024a1      0x1ff Z:/Documents/GitHub/OpenSesame/smack_lib/build/image/\libsmack.a(shc_lib.o)
                               0x2040 (size before relaxing)
 .debug_str     0x000026a0      0x3f0 Z:/Documents/GitHub/OpenSesame/smack_lib/build/image/\libsmack.a(smack_exchange.o)
                               0x2424 (size before relaxing)
 .debug_str     0x00002a90      0x9a7 Z:/Documents/GitHub/OpenSesame/smack_lib/build/image/\libsmack.a(sys_tim_lib.o)
                               0x287b (size before relaxing)
 .debug_str     0x00003437      0x327 Z:/Documents/GitHub/OpenSesame/smack_lib/build/image/\libsmack.a(aes_lib.o)
                               0x220b (size before relaxing)
 .debug_str     0x0000375e     0x1403 Z:/Documents/GitHub/OpenSesame/smack_lib/build/image/\libsmack.a(sense_lib.o)
                               0x33ce (size before relaxing)

.comment        0x00000000       0x49
 .comment       0x00000000       0x49 Z:/Documents/GitHub/OpenSesame/smack_sl/build/image/objects/sl_aparam.o
                                 0x4a (size before relaxing)
 .comment       0x00000049       0x4a Z:/Documents/GitHub/OpenSesame/smack_sl/build/image/objects/smack_dataexchange.o
 .comment       0x00000049       0x4a Z:/Documents/GitHub/OpenSesame/smack_sl/build/image/objects/smack_sl.o
 .comment       0x00000049       0x4a Z:/Documents/GitHub/OpenSesame/smack_sl/build/image/objects/startup_smack.o
 .comment       0x00000049       0x4a Z:/Documents/GitHub/OpenSesame/smack_sl/build/image/objects/version.o
 .comment       0x00000049       0x4a Z:/Documents/GitHub/OpenSesame/smack_lib/build/image/\libsmack.a(shc_lib.o)
 .comment       0x00000049       0x4a Z:/Documents/GitHub/OpenSesame/smack_lib/build/image/\libsmack.a(smack_exchange.o)
 .comment       0x00000049       0x4a Z:/Documents/GitHub/OpenSesame/smack_lib/build/image/\libsmack.a(sys_tim_lib.o)
 .comment       0x00000049       0x4a Z:/Documents/GitHub/OpenSesame/smack_lib/build/image/\libsmack.a(aes_lib.o)
 .comment       0x00000049       0x4a Z:/Documents/GitHub/OpenSesame/smack_lib/build/image/\libsmack.a(sense_lib.o)

.ARM.attributes
                0x00000000       0x2c
 .ARM.attributes
                0x00000000       0x2c Z:/Documents/GitHub/OpenSesame/smack_sl/build/image/objects/sl_aparam.o
 .ARM.attributes
                0x0000002c       0x2c Z:/Documents/GitHub/OpenSesame/smack_sl/build/image/objects/smack_dataexchange.o
 .ARM.attributes
                0x00000058       0x2c Z:/Documents/GitHub/OpenSesame/smack_sl/build/image/objects/smack_sl.o
 .ARM.attributes
                0x00000084       0x2c Z:/Documents/GitHub/OpenSesame/smack_sl/build/image/objects/startup_smack.o
 .ARM.attributes
                0x000000b0       0x31 Z:/Documents/GitHub/OpenSesame/smack_sl/build/image/objects/version.o
 .ARM.attributes
                0x000000e1       0x2c Z:/Documents/GitHub/OpenSesame/smack_lib/build/image/\libsmack.a(shc_lib.o)
 .ARM.attributes
                0x0000010d       0x2c Z:/Documents/GitHub/OpenSesame/smack_lib/build/image/\libsmack.a(smack_exchange.o)
 .ARM.attributes
                0x00000139       0x2c Z:/Documents/GitHub/OpenSesame/smack_lib/build/image/\libsmack.a(sys_tim_lib.o)
 .ARM.attributes
                0x00000165       0x2c Z:/Documents/GitHub/OpenSesame/smack_lib/build/image/\libsmack.a(aes_lib.o)
 .ARM.attributes
                0x00000191       0x2c Z:/Documents/GitHub/OpenSesame/smack_lib/build/image/\libsmack.a(sense_lib.o)
 .ARM.attributes
                0x000001bd       0x1e z:/documents/github/opensesame/tools/extern/gcc-arm-none-eabi/bin/../lib/gcc/arm-none-eabi/10.3.1/thumb/v6-m/nofp\libgcc.a(_thumb1_case_sqi.o)
 .ARM.attributes
                0x000001db       0x1e z:/documents/github/opensesame/tools/extern/gcc-arm-none-eabi/bin/../lib/gcc/arm-none-eabi/10.3.1/thumb/v6-m/nofp\libgcc.a(_thumb1_case_uqi.o)
 .ARM.attributes
                0x000001f9       0x1e z:/documents/github/opensesame/tools/extern/gcc-arm-none-eabi/bin/../lib/gcc/arm-none-eabi/10.3.1/thumb/v6-m/nofp\libgcc.a(_udivsi3.o)
 .ARM.attributes
                0x00000217       0x1e z:/documents/github/opensesame/tools/extern/gcc-arm-none-eabi/bin/../lib/gcc/arm-none-eabi/10.3.1/thumb/v6-m/nofp\libgcc.a(_dvmd_tls.o)
 .ARM.attributes
                0x00000235       0x2c z:/documents/github/opensesame/tools/extern/gcc-arm-none-eabi/bin/../lib/gcc/arm-none-eabi/10.3.1/../../../../arm-none-eabi/lib/thumb/v6-m/nofp\libc.a(lib_a-memcpy-stub.o)
 .ARM.attributes
                0x00000261       0x2c z:/documents/github/opensesame/tools/extern/gcc-arm-none-eabi/bin/../lib/gcc/arm-none-eabi/10.3.1/../../../../arm-none-eabi/lib/thumb/v6-m/nofp\libc.a(lib_a-strncpy.o)
 .ARM.attributes
                0x0000028d       0x2c z:/documents/github/opensesame/tools/extern/gcc-arm-none-eabi/bin/../lib/gcc/arm-none-eabi/10.3.1/../../../../arm-none-eabi/lib/thumb/v6-m/nofp\libc.a(lib_a-strnlen.o)

.debug_frame    0x00000000      0x58c
 .debug_frame   0x00000000       0x20 Z:/Documents/GitHub/OpenSesame/smack_sl/build/image/objects/sl_aparam.o
 .debug_frame   0x00000020       0x2c Z:/Documents/GitHub/OpenSesame/smack_sl/build/image/objects/smack_dataexchange.o
 .debug_frame   0x0000004c      0x104 Z:/Documents/GitHub/OpenSesame/smack_sl/build/image/objects/smack_sl.o
 .debug_frame   0x00000150       0x3c Z:/Documents/GitHub/OpenSesame/smack_sl/build/image/objects/startup_smack.o
 .debug_frame   0x0000018c       0x68 Z:/Documents/GitHub/OpenSesame/smack_lib/build/image/\libsmack.a(shc_lib.o)
 .debug_frame   0x000001f4       0xac Z:/Documents/GitHub/OpenSesame/smack_lib/build/image/\libsmack.a(smack_exchange.o)
 .debug_frame   0x000002a0      0x138 Z:/Documents/GitHub/OpenSesame/smack_lib/build/image/\libsmack.a(sys_tim_lib.o)
 .debug_frame   0x000003d8       0xa0 Z:/Documents/GitHub/OpenSesame/smack_lib/build/image/\libsmack.a(aes_lib.o)
 .debug_frame   0x00000478       0x68 Z:/Documents/GitHub/OpenSesame/smack_lib/build/image/\libsmack.a(sense_lib.o)
 .debug_frame   0x000004e0       0x20 z:/documents/github/opensesame/tools/extern/gcc-arm-none-eabi/bin/../lib/gcc/arm-none-eabi/10.3.1/thumb/v6-m/nofp\libgcc.a(_udivsi3.o)
 .debug_frame   0x00000500       0x34 z:/documents/github/opensesame/tools/extern/gcc-arm-none-eabi/bin/../lib/gcc/arm-none-eabi/10.3.1/../../../../arm-none-eabi/lib/thumb/v6-m/nofp\libc.a(lib_a-memcpy-stub.o)
 .debug_frame   0x00000534       0x30 z:/documents/github/opensesame/tools/extern/gcc-arm-none-eabi/bin/../lib/gcc/arm-none-eabi/10.3.1/../../../../arm-none-eabi/lib/thumb/v6-m/nofp\libc.a(lib_a-strncpy.o)
 .debug_frame   0x00000564       0x28 z:/documents/github/opensesame/tools/extern/gcc-arm-none-eabi/bin/../lib/gcc/arm-none-eabi/10.3.1/../../../../arm-none-eabi/lib/thumb/v6-m/nofp\libc.a(lib_a-strnlen.o)

.debug_loc      0x00000000     0x571a
 .debug_loc     0x00000000       0x20 Z:/Documents/GitHub/OpenSesame/smack_sl/build/image/objects/smack_dataexchange.o
 .debug_loc     0x00000020      0x534 Z:/Documents/GitHub/OpenSesame/smack_sl/build/image/objects/smack_sl.o
 .debug_loc     0x00000554       0xaa Z:/Documents/GitHub/OpenSesame/smack_sl/build/image/objects/startup_smack.o
 .debug_loc     0x000005fe      0x1f0 Z:/Documents/GitHub/OpenSesame/smack_lib/build/image/\libsmack.a(shc_lib.o)
 .debug_loc     0x000007ee     0x11af Z:/Documents/GitHub/OpenSesame/smack_lib/build/image/\libsmack.a(smack_exchange.o)
 .debug_loc     0x0000199d     0x1184 Z:/Documents/GitHub/OpenSesame/smack_lib/build/image/\libsmack.a(sys_tim_lib.o)
 .debug_loc     0x00002b21      0x864 Z:/Documents/GitHub/OpenSesame/smack_lib/build/image/\libsmack.a(aes_lib.o)
 .debug_loc     0x00003385     0x2395 Z:/Documents/GitHub/OpenSesame/smack_lib/build/image/\libsmack.a(sense_lib.o)
